	.cpu cortex-m4
	.arch armv7e-m
	.fpu fpv4-sp-d16
	.eabi_attribute 27, 1
	.eabi_attribute 28, 1
	.eabi_attribute 20, 1
	.eabi_attribute 21, 1
	.eabi_attribute 23, 3
	.eabi_attribute 24, 1
	.eabi_attribute 25, 1
	.eabi_attribute 26, 1
	.eabi_attribute 30, 6
	.eabi_attribute 34, 1
	.eabi_attribute 38, 1
	.eabi_attribute 18, 4
	.file	"kernel_util.cc"
	.text
.Ltext0:
	.section	.rodata._ZNSt3__1L19piecewise_constructE,"a"
	.align	2
	.type	_ZNSt3__1L19piecewise_constructE, %object
	.size	_ZNSt3__1L19piecewise_constructE, 1
_ZNSt3__1L19piecewise_constructE:
	.space	1
	.section	.text._ZNSt3__117_DeallocateCaller27__do_deallocate_handle_sizeEPvj,"axG",%progbits,_ZNSt3__117_DeallocateCaller27__do_deallocate_handle_sizeEPvj,comdat
	.align	1
	.weak	_ZNSt3__117_DeallocateCaller27__do_deallocate_handle_sizeEPvj
	.syntax unified
	.thumb
	.thumb_func
	.type	_ZNSt3__117_DeallocateCaller27__do_deallocate_handle_sizeEPvj, %function
_ZNSt3__117_DeallocateCaller27__do_deallocate_handle_sizeEPvj:
.LFB489:
	.file 1 "C:/Program Files/SEGGER/SEGGER Embedded Studio for ARM 7.10a/source/libcxx/include/new"
	.loc 1 289 22
	@ args = 0, pretend = 0, frame = 8
	@ frame_needed = 0, uses_anonymous_args = 0
	push	{lr}
.LCFI0:
	sub	sp, sp, #12
.LCFI1:
	str	r0, [sp, #4]
	str	r1, [sp]
	.loc 1 292 21
	ldr	r0, [sp, #4]
	bl	_ZNSt3__117_DeallocateCaller9__do_callEPv
	.loc 1 292 27
	nop
	.loc 1 296 3
	add	sp, sp, #12
.LCFI2:
	@ sp needed
	ldr	pc, [sp], #4
.LFE489:
	.size	_ZNSt3__117_DeallocateCaller27__do_deallocate_handle_sizeEPvj, .-_ZNSt3__117_DeallocateCaller27__do_deallocate_handle_sizeEPvj
	.section	.text._ZNSt3__117_DeallocateCaller9__do_callEPv,"axG",%progbits,_ZNSt3__117_DeallocateCaller9__do_callEPv,comdat
	.align	1
	.weak	_ZNSt3__117_DeallocateCaller9__do_callEPv
	.syntax unified
	.thumb
	.thumb_func
	.type	_ZNSt3__117_DeallocateCaller9__do_callEPv, %function
_ZNSt3__117_DeallocateCaller9__do_callEPv:
.LFB492:
	.loc 1 330 22
	@ args = 0, pretend = 0, frame = 8
	@ frame_needed = 0, uses_anonymous_args = 0
	push	{lr}
.LCFI3:
	sub	sp, sp, #12
.LCFI4:
	str	r0, [sp, #4]
	.loc 1 332 29
	ldr	r0, [sp, #4]
	bl	_ZdlPv
	.loc 1 332 35
	nop
	.loc 1 336 3
	add	sp, sp, #12
.LCFI5:
	@ sp needed
	ldr	pc, [sp], #4
.LFE492:
	.size	_ZNSt3__117_DeallocateCaller9__do_callEPv, .-_ZNSt3__117_DeallocateCaller9__do_callEPv
	.section	.rodata._ZNSt3__1L13allocator_argE,"a"
	.align	2
	.type	_ZNSt3__1L13allocator_argE, %object
	.size	_ZNSt3__1L13allocator_argE, 1
_ZNSt3__1L13allocator_argE:
	.space	1
	.section	.rodata._ZNSt3__112_GLOBAL__N_1L6ignoreE,"a"
	.align	2
	.type	_ZNSt3__112_GLOBAL__N_1L6ignoreE, %object
	.size	_ZNSt3__112_GLOBAL__N_1L6ignoreE, 1
_ZNSt3__112_GLOBAL__N_1L6ignoreE:
	.space	1
	.section	.rodata._ZNSt3__112placeholdersL2_1E,"a"
	.align	2
	.type	_ZNSt3__112placeholdersL2_1E, %object
	.size	_ZNSt3__112placeholdersL2_1E, 1
_ZNSt3__112placeholdersL2_1E:
	.space	1
	.section	.rodata._ZNSt3__112placeholdersL2_2E,"a"
	.align	2
	.type	_ZNSt3__112placeholdersL2_2E, %object
	.size	_ZNSt3__112placeholdersL2_2E, 1
_ZNSt3__112placeholdersL2_2E:
	.space	1
	.section	.rodata._ZNSt3__112placeholdersL2_3E,"a"
	.align	2
	.type	_ZNSt3__112placeholdersL2_3E, %object
	.size	_ZNSt3__112placeholdersL2_3E, 1
_ZNSt3__112placeholdersL2_3E:
	.space	1
	.section	.rodata._ZNSt3__112placeholdersL2_4E,"a"
	.align	2
	.type	_ZNSt3__112placeholdersL2_4E, %object
	.size	_ZNSt3__112placeholdersL2_4E, 1
_ZNSt3__112placeholdersL2_4E:
	.space	1
	.section	.rodata._ZNSt3__112placeholdersL2_5E,"a"
	.align	2
	.type	_ZNSt3__112placeholdersL2_5E, %object
	.size	_ZNSt3__112placeholdersL2_5E, 1
_ZNSt3__112placeholdersL2_5E:
	.space	1
	.section	.rodata._ZNSt3__112placeholdersL2_6E,"a"
	.align	2
	.type	_ZNSt3__112placeholdersL2_6E, %object
	.size	_ZNSt3__112placeholdersL2_6E, 1
_ZNSt3__112placeholdersL2_6E:
	.space	1
	.section	.rodata._ZNSt3__112placeholdersL2_7E,"a"
	.align	2
	.type	_ZNSt3__112placeholdersL2_7E, %object
	.size	_ZNSt3__112placeholdersL2_7E, 1
_ZNSt3__112placeholdersL2_7E:
	.space	1
	.section	.rodata._ZNSt3__112placeholdersL2_8E,"a"
	.align	2
	.type	_ZNSt3__112placeholdersL2_8E, %object
	.size	_ZNSt3__112placeholdersL2_8E, 1
_ZNSt3__112placeholdersL2_8E:
	.space	1
	.section	.rodata._ZNSt3__112placeholdersL2_9E,"a"
	.align	2
	.type	_ZNSt3__112placeholdersL2_9E, %object
	.size	_ZNSt3__112placeholdersL2_9E, 1
_ZNSt3__112placeholdersL2_9E:
	.space	1
	.section	.rodata._ZNSt3__112placeholdersL3_10E,"a"
	.align	2
	.type	_ZNSt3__112placeholdersL3_10E, %object
	.size	_ZNSt3__112placeholdersL3_10E, 1
_ZNSt3__112placeholdersL3_10E:
	.space	1
	.section	.text._ZNSt3__111char_traitsIcE6assignERcRKc,"axG",%progbits,_ZNSt3__111char_traitsIcE6assignERcRKc,comdat
	.align	1
	.weak	_ZNSt3__111char_traitsIcE6assignERcRKc
	.syntax unified
	.thumb
	.thumb_func
	.type	_ZNSt3__111char_traitsIcE6assignERcRKc, %function
_ZNSt3__111char_traitsIcE6assignERcRKc:
.LFB1597:
	.file 2 "C:/Program Files/SEGGER/SEGGER Embedded Studio for ARM 7.10a/source/libcxx/include/__string"
	.loc 2 244 10
	@ args = 0, pretend = 0, frame = 8
	@ frame_needed = 0, uses_anonymous_args = 0
	@ link register save eliminated.
	sub	sp, sp, #8
.LCFI6:
	str	r0, [sp, #4]
	str	r1, [sp]
	.loc 2 244 75
	ldr	r3, [sp]
	ldrb	r2, [r3]	@ zero_extendqisi2
	.loc 2 244 73
	ldr	r3, [sp, #4]
	strb	r2, [r3]
	.loc 2 244 80
	nop
	add	sp, sp, #8
.LCFI7:
	@ sp needed
	bx	lr
.LFE1597:
	.size	_ZNSt3__111char_traitsIcE6assignERcRKc, .-_ZNSt3__111char_traitsIcE6assignERcRKc
	.section	.text._ZN6tflite13NumDimensionsEPK12TfLiteTensor,"axG",%progbits,_ZN6tflite13NumDimensionsEPK12TfLiteTensor,comdat
	.align	1
	.weak	_ZN6tflite13NumDimensionsEPK12TfLiteTensor
	.syntax unified
	.thumb
	.thumb_func
	.type	_ZN6tflite13NumDimensionsEPK12TfLiteTensor, %function
_ZN6tflite13NumDimensionsEPK12TfLiteTensor:
.LFB1995:
	.file 3 "C:/TensorFlow/tflite-micro/tensorflow/lite/kernels/kernel_util.h"
	.loc 3 150 49
	@ args = 0, pretend = 0, frame = 8
	@ frame_needed = 0, uses_anonymous_args = 0
	@ link register save eliminated.
	sub	sp, sp, #8
.LCFI8:
	str	r0, [sp, #4]
	.loc 3 150 61
	ldr	r3, [sp, #4]
	ldr	r3, [r3, #8]
	.loc 3 150 67
	ldr	r3, [r3]
	.loc 3 150 73
	mov	r0, r3
	add	sp, sp, #8
.LCFI9:
	@ sp needed
	bx	lr
.LFE1995:
	.size	_ZN6tflite13NumDimensionsEPK12TfLiteTensor, .-_ZN6tflite13NumDimensionsEPK12TfLiteTensor
	.section	.text._ZN6tflite15SizeOfDimensionEPK12TfLiteTensori,"axG",%progbits,_ZN6tflite15SizeOfDimensionEPK12TfLiteTensori,comdat
	.align	1
	.weak	_ZN6tflite15SizeOfDimensionEPK12TfLiteTensori
	.syntax unified
	.thumb
	.thumb_func
	.type	_ZN6tflite15SizeOfDimensionEPK12TfLiteTensori, %function
_ZN6tflite15SizeOfDimensionEPK12TfLiteTensori:
.LFB1996:
	.loc 3 151 60
	@ args = 0, pretend = 0, frame = 8
	@ frame_needed = 0, uses_anonymous_args = 0
	@ link register save eliminated.
	sub	sp, sp, #8
.LCFI10:
	str	r0, [sp, #4]
	str	r1, [sp]
	.loc 3 152 13
	ldr	r3, [sp, #4]
	ldr	r2, [r3, #8]
	.loc 3 152 27
	ldr	r3, [sp]
	lsls	r3, r3, #2
	add	r3, r3, r2
	ldr	r3, [r3, #4]
	.loc 3 153 1
	mov	r0, r3
	add	sp, sp, #8
.LCFI11:
	@ sp needed
	bx	lr
.LFE1996:
	.size	_ZN6tflite15SizeOfDimensionEPK12TfLiteTensori, .-_ZN6tflite15SizeOfDimensionEPK12TfLiteTensori
	.section	.rodata._ZL8__elast1,"a"
	.align	2
	.type	_ZL8__elast1, %object
	.size	_ZL8__elast1, 4
_ZL8__elast1:
	.word	104
	.section	.rodata._ZL8__elast2,"a"
	.align	2
	.type	_ZL8__elast2, %object
	.size	_ZL8__elast2, 4
_ZL8__elast2:
	.word	105
	.section	.text._ZN6tflite18TfLiteIntArrayViewC2EPK14TfLiteIntArray,"axG",%progbits,_ZN6tflite18TfLiteIntArrayViewC5EPK14TfLiteIntArray,comdat
	.align	1
	.weak	_ZN6tflite18TfLiteIntArrayViewC2EPK14TfLiteIntArray
	.syntax unified
	.thumb
	.thumb_func
	.type	_ZN6tflite18TfLiteIntArrayViewC2EPK14TfLiteIntArray, %function
_ZN6tflite18TfLiteIntArrayViewC2EPK14TfLiteIntArray:
.LFB3150:
	.file 4 "C:/TensorFlow/tflite-micro/tensorflow/lite/context_util.h"
	.loc 4 36 12
	@ args = 0, pretend = 0, frame = 8
	@ frame_needed = 0, uses_anonymous_args = 0
	@ link register save eliminated.
	sub	sp, sp, #8
.LCFI12:
	str	r0, [sp, #4]
	str	r1, [sp]
.LBB1374:
	.loc 4 37 9
	ldr	r3, [sp, #4]
	ldr	r2, [sp]
	str	r2, [r3]
.LBE1374:
	.loc 4 37 32
	ldr	r3, [sp, #4]
	mov	r0, r3
	add	sp, sp, #8
.LCFI13:
	@ sp needed
	bx	lr
.LFE3150:
	.size	_ZN6tflite18TfLiteIntArrayViewC2EPK14TfLiteIntArray, .-_ZN6tflite18TfLiteIntArrayViewC2EPK14TfLiteIntArray
	.weak	_ZN6tflite18TfLiteIntArrayViewC1EPK14TfLiteIntArray
	.thumb_set _ZN6tflite18TfLiteIntArrayViewC1EPK14TfLiteIntArray,_ZN6tflite18TfLiteIntArrayViewC2EPK14TfLiteIntArray
	.section	.text._ZNK6tflite18TfLiteIntArrayView5beginEv,"axG",%progbits,_ZNK6tflite18TfLiteIntArrayView5beginEv,comdat
	.align	1
	.weak	_ZNK6tflite18TfLiteIntArrayView5beginEv
	.syntax unified
	.thumb
	.thumb_func
	.type	_ZNK6tflite18TfLiteIntArrayView5beginEv, %function
_ZNK6tflite18TfLiteIntArrayView5beginEv:
.LFB3152:
	.loc 4 43 18
	@ args = 0, pretend = 0, frame = 8
	@ frame_needed = 0, uses_anonymous_args = 0
	@ link register save eliminated.
	sub	sp, sp, #8
.LCFI14:
	str	r0, [sp, #4]
	.loc 4 43 41
	ldr	r3, [sp, #4]
	ldr	r3, [r3]
	.loc 4 43 53
	adds	r3, r3, #4
	.loc 4 43 59
	mov	r0, r3
	add	sp, sp, #8
.LCFI15:
	@ sp needed
	bx	lr
.LFE3152:
	.size	_ZNK6tflite18TfLiteIntArrayView5beginEv, .-_ZNK6tflite18TfLiteIntArrayView5beginEv
	.section	.text._ZNK6tflite18TfLiteIntArrayView3endEv,"axG",%progbits,_ZNK6tflite18TfLiteIntArrayView3endEv,comdat
	.align	1
	.weak	_ZNK6tflite18TfLiteIntArrayView3endEv
	.syntax unified
	.thumb
	.thumb_func
	.type	_ZNK6tflite18TfLiteIntArrayView3endEv, %function
_ZNK6tflite18TfLiteIntArrayView3endEv:
.LFB3153:
	.loc 4 44 18
	@ args = 0, pretend = 0, frame = 8
	@ frame_needed = 0, uses_anonymous_args = 0
	@ link register save eliminated.
	sub	sp, sp, #8
.LCFI16:
	str	r0, [sp, #4]
	.loc 4 44 40
	ldr	r3, [sp, #4]
	ldr	r2, [r3]
	.loc 4 44 57
	ldr	r3, [sp, #4]
	ldr	r3, [r3]
	.loc 4 44 69
	ldr	r3, [r3]
	.loc 4 44 73
	lsls	r3, r3, #2
	add	r3, r3, r2
	adds	r3, r3, #4
	.loc 4 44 76
	mov	r0, r3
	add	sp, sp, #8
.LCFI17:
	@ sp needed
	bx	lr
.LFE3153:
	.size	_ZNK6tflite18TfLiteIntArrayView3endEv, .-_ZNK6tflite18TfLiteIntArrayView3endEv
	.section	.rodata._ZN6tfliteL23kTransposeMaxDimensionsE,"a"
	.align	2
	.type	_ZN6tfliteL23kTransposeMaxDimensionsE, %object
	.size	_ZN6tfliteL23kTransposeMaxDimensionsE, 4
_ZN6tfliteL23kTransposeMaxDimensionsE:
	.word	6
	.section	.text._ZN6tflite12_GLOBAL__N_116GetTensorAtIndexEPK13TfLiteContexti,"ax",%progbits
	.align	1
	.syntax unified
	.thumb
	.thumb_func
	.type	_ZN6tflite12_GLOBAL__N_116GetTensorAtIndexEPK13TfLiteContexti, %function
_ZN6tflite12_GLOBAL__N_116GetTensorAtIndexEPK13TfLiteContexti:
.LFB3235:
	.file 5 "C:\\TensorFlow\\tflite-micro\\tensorflow\\lite\\kernels\\kernel_util.cc"
	.loc 5 44 57
	@ args = 0, pretend = 0, frame = 8
	@ frame_needed = 0, uses_anonymous_args = 0
	push	{lr}
.LCFI18:
	sub	sp, sp, #12
.LCFI19:
	str	r0, [sp, #4]
	str	r1, [sp]
	.loc 5 45 16
	ldr	r3, [sp, #4]
	ldr	r3, [r3, #8]
	.loc 5 45 3
	cmp	r3, #0
	beq	.L17
	.loc 5 46 22
	ldr	r3, [sp, #4]
	ldr	r2, [r3, #8]
	.loc 5 46 30
	ldr	r3, [sp]
	.loc 5 46 42
	lsls	r3, r3, #6
	add	r3, r3, r2
	b	.L18
.L17:
	.loc 5 48 21
	ldr	r3, [sp, #4]
	ldr	r3, [r3, #80]
	.loc 5 48 30
	ldr	r1, [sp]
	ldr	r0, [sp, #4]
	blx	r3
.LVL0:
	mov	r3, r0
	.loc 5 48 52
	nop
.L18:
	.loc 5 50 1
	mov	r0, r3
	add	sp, sp, #12
.LCFI20:
	@ sp needed
	ldr	pc, [sp], #4
.LFE3235:
	.size	_ZN6tflite12_GLOBAL__N_116GetTensorAtIndexEPK13TfLiteContexti, .-_ZN6tflite12_GLOBAL__N_116GetTensorAtIndexEPK13TfLiteContexti
	.section .rodata
	.align	2
.LC0:
	.ascii	"Invalid tensor index %d (not in [0, %d))\012\000"
	.align	2
.LC1:
	.ascii	"Tensor at index %d was optional but was expected\012"
	.ascii	"\000"
	.section	.text._ZN6tflite12_GLOBAL__N_126ValidateTensorIndexingSafeEPK13TfLiteContextiiPKiPi,"ax",%progbits
	.align	1
	.syntax unified
	.thumb
	.thumb_func
	.type	_ZN6tflite12_GLOBAL__N_126ValidateTensorIndexingSafeEPK13TfLiteContextiiPKiPi, %function
_ZN6tflite12_GLOBAL__N_126ValidateTensorIndexingSafeEPK13TfLiteContextiiPKiPi:
.LFB3236:
	.loc 5 56 67
	@ args = 4, pretend = 0, frame = 16
	@ frame_needed = 0, uses_anonymous_args = 0
	push	{r4, lr}
.LCFI21:
	sub	sp, sp, #16
.LCFI22:
	str	r0, [sp, #12]
	str	r1, [sp, #8]
	str	r2, [sp, #4]
	str	r3, [sp]
	.loc 5 57 3
	ldr	r3, [sp, #8]
	cmp	r3, #0
	blt	.L20
	.loc 5 57 17 discriminator 1
	ldr	r2, [sp, #8]
	ldr	r3, [sp, #4]
	cmp	r2, r3
	blt	.L21
.L20:
	.loc 5 58 5
	ldr	r3, [sp, #12]
	ldr	r4, [r3, #20]
	ldr	r3, [sp, #4]
	ldr	r2, [sp, #8]
	ldr	r1, .L24
	ldr	r0, [sp, #12]
	blx	r4
.LVL1:
	.loc 5 61 12
	movs	r3, #1
	b	.L22
.L21:
	.loc 5 63 22
	ldr	r3, [sp, #8]
	.loc 5 63 27
	lsls	r3, r3, #2
	ldr	r2, [sp]
	add	r3, r3, r2
	ldr	r3, [r3]
	.loc 5 63 3
	cmp	r3, #-1
	bne	.L23
	.loc 5 64 5
	ldr	r3, [sp, #12]
	ldr	r3, [r3, #20]
	ldr	r2, [sp, #8]
	ldr	r1, .L24+4
	ldr	r0, [sp, #12]
	blx	r3
.LVL2:
	.loc 5 67 12
	movs	r3, #1
	b	.L22
.L23:
	.loc 5 70 34
	ldr	r3, [sp, #8]
	.loc 5 70 39
	lsls	r3, r3, #2
	ldr	r2, [sp]
	add	r3, r3, r2
	ldr	r2, [r3]
	.loc 5 70 17
	ldr	r3, [sp, #24]
	str	r2, [r3]
	.loc 5 71 10
	movs	r3, #0
.L22:
	.loc 5 72 1
	mov	r0, r3
	add	sp, sp, #16
.LCFI23:
	@ sp needed
	pop	{r4, pc}
.L25:
	.align	2
.L24:
	.word	.LC0
	.word	.LC1
.LFE3236:
	.size	_ZN6tflite12_GLOBAL__N_126ValidateTensorIndexingSafeEPK13TfLiteContextiiPKiPi, .-_ZN6tflite12_GLOBAL__N_126ValidateTensorIndexingSafeEPK13TfLiteContextiiPKiPi
	.section	.text._ZN6tflite12_GLOBAL__N_122ValidateTensorIndexingEPK13TfLiteContextiiPKi,"ax",%progbits
	.align	1
	.syntax unified
	.thumb
	.thumb_func
	.type	_ZN6tflite12_GLOBAL__N_122ValidateTensorIndexingEPK13TfLiteContextiiPKi, %function
_ZN6tflite12_GLOBAL__N_122ValidateTensorIndexingEPK13TfLiteContextiiPKi:
.LFB3237:
	.loc 5 77 76
	@ args = 0, pretend = 0, frame = 24
	@ frame_needed = 0, uses_anonymous_args = 0
	@ link register save eliminated.
	sub	sp, sp, #24
.LCFI24:
	str	r0, [sp, #12]
	str	r1, [sp, #8]
	str	r2, [sp, #4]
	str	r3, [sp]
.LBB1375:
	.loc 5 78 3
	ldr	r3, [sp, #8]
	cmp	r3, #0
	blt	.L27
	.loc 5 78 18 discriminator 1
	ldr	r2, [sp, #8]
	ldr	r3, [sp, #4]
	cmp	r2, r3
	bge	.L27
.LBB1376:
	.loc 5 79 45
	ldr	r3, [sp, #8]
	.loc 5 79 50
	lsls	r3, r3, #2
	ldr	r2, [sp]
	add	r3, r3, r2
	.loc 5 79 15
	ldr	r3, [r3]
	str	r3, [sp, #20]
	.loc 5 80 5
	ldr	r3, [sp, #20]
	cmp	r3, #-1
	beq	.L27
	.loc 5 81 14
	ldr	r3, [sp, #20]
	b	.L28
.L27:
.LBE1376:
.LBE1375:
	.loc 5 84 11
	mov	r3, #-1
.L28:
	.loc 5 85 1
	mov	r0, r3
	add	sp, sp, #24
.LCFI25:
	@ sp needed
	bx	lr
.LFE3237:
	.size	_ZN6tflite12_GLOBAL__N_122ValidateTensorIndexingEPK13TfLiteContextiiPKi, .-_ZN6tflite12_GLOBAL__N_122ValidateTensorIndexingEPK13TfLiteContextiiPKi
	.section	.text._ZN6tflite12_GLOBAL__N_115GetMutableInputEPK13TfLiteContextPK10TfLiteNodei,"ax",%progbits
	.align	1
	.syntax unified
	.thumb
	.thumb_func
	.type	_ZN6tflite12_GLOBAL__N_115GetMutableInputEPK13TfLiteContextPK10TfLiteNodei, %function
_ZN6tflite12_GLOBAL__N_115GetMutableInputEPK13TfLiteContextPK10TfLiteNodei:
.LFB3238:
	.loc 5 88 73
	@ args = 0, pretend = 0, frame = 24
	@ frame_needed = 0, uses_anonymous_args = 0
	push	{lr}
.LCFI26:
	sub	sp, sp, #28
.LCFI27:
	str	r0, [sp, #12]
	str	r1, [sp, #8]
	str	r2, [sp, #4]
	.loc 5 90 29
	ldr	r3, [sp, #8]
	ldr	r3, [r3]
	.loc 5 89 50
	ldr	r2, [r3]
	.loc 5 90 49
	ldr	r3, [sp, #8]
	ldr	r3, [r3]
	.loc 5 90 57
	adds	r3, r3, #4
	.loc 5 89 50
	ldr	r1, [sp, #4]
	ldr	r0, [sp, #12]
	bl	_ZN6tflite12_GLOBAL__N_122ValidateTensorIndexingEPK13TfLiteContextiiPKi
	str	r0, [sp, #20]
	.loc 5 91 3
	ldr	r3, [sp, #20]
	cmp	r3, #0
	bge	.L30
	.loc 5 92 12
	movs	r3, #0
	b	.L31
.L30:
	.loc 5 94 26
	ldr	r1, [sp, #20]
	ldr	r0, [sp, #12]
	bl	_ZN6tflite12_GLOBAL__N_116GetTensorAtIndexEPK13TfLiteContexti
	mov	r3, r0
	.loc 5 94 48
	nop
.L31:
	.loc 5 95 1
	mov	r0, r3
	add	sp, sp, #28
.LCFI28:
	@ sp needed
	ldr	pc, [sp], #4
.LFE3238:
	.size	_ZN6tflite12_GLOBAL__N_115GetMutableInputEPK13TfLiteContextPK10TfLiteNodei, .-_ZN6tflite12_GLOBAL__N_115GetMutableInputEPK13TfLiteContextPK10TfLiteNodei
	.section	.text._ZN6tflite12_GLOBAL__N_119GetMutableInputSafeEPK13TfLiteContextPK10TfLiteNodeiPPK12TfLiteTensor,"ax",%progbits
	.align	1
	.syntax unified
	.thumb
	.thumb_func
	.type	_ZN6tflite12_GLOBAL__N_119GetMutableInputSafeEPK13TfLiteContextPK10TfLiteNodeiPPK12TfLiteTensor, %function
_ZN6tflite12_GLOBAL__N_119GetMutableInputSafeEPK13TfLiteContextPK10TfLiteNodeiPPK12TfLiteTensor:
.LFB3239:
	.loc 5 99 70
	@ args = 0, pretend = 0, frame = 24
	@ frame_needed = 0, uses_anonymous_args = 0
	push	{lr}
.LCFI29:
	sub	sp, sp, #36
.LCFI30:
	str	r0, [sp, #20]
	str	r1, [sp, #16]
	str	r2, [sp, #12]
	str	r3, [sp, #8]
.LBB1377:
	.loc 5 101 3
	ldr	r3, [sp, #16]
	ldr	r3, [r3]
	ldr	r2, [r3]
	ldr	r3, [sp, #16]
	ldr	r3, [r3]
	adds	r1, r3, #4
	add	r3, sp, #24
	str	r3, [sp]
	mov	r3, r1
	ldr	r1, [sp, #12]
	ldr	r0, [sp, #20]
	bl	_ZN6tflite12_GLOBAL__N_126ValidateTensorIndexingSafeEPK13TfLiteContextiiPKiPi
	mov	r3, r0
	strb	r3, [sp, #31]
	ldrb	r3, [sp, #31]	@ zero_extendqisi2
	cmp	r3, #0
	beq	.L33
	.loc 5 101 3 is_stmt 0 discriminator 1
	ldrb	r3, [sp, #31]	@ zero_extendqisi2
	b	.L35
.L33:
.LBE1377:
	.loc 5 104 29 is_stmt 1
	ldr	r3, [sp, #24]
	mov	r1, r3
	ldr	r0, [sp, #20]
	bl	_ZN6tflite12_GLOBAL__N_116GetTensorAtIndexEPK13TfLiteContexti
	mov	r2, r0
	.loc 5 104 11
	ldr	r3, [sp, #8]
	str	r2, [r3]
	.loc 5 105 10
	movs	r3, #0
.L35:
	.loc 5 106 1 discriminator 1
	mov	r0, r3
	add	sp, sp, #36
.LCFI31:
	@ sp needed
	ldr	pc, [sp], #4
.LFE3239:
	.size	_ZN6tflite12_GLOBAL__N_119GetMutableInputSafeEPK13TfLiteContextPK10TfLiteNodeiPPK12TfLiteTensor, .-_ZN6tflite12_GLOBAL__N_119GetMutableInputSafeEPK13TfLiteContextPK10TfLiteNodeiPPK12TfLiteTensor
	.section	.text._ZN6tflite8GetInputEPK13TfLiteContextPK10TfLiteNodei,"ax",%progbits
	.align	1
	.global	_ZN6tflite8GetInputEPK13TfLiteContextPK10TfLiteNodei
	.syntax unified
	.thumb
	.thumb_func
	.type	_ZN6tflite8GetInputEPK13TfLiteContextPK10TfLiteNodei, %function
_ZN6tflite8GetInputEPK13TfLiteContextPK10TfLiteNodei:
.LFB3240:
	.loc 5 111 65
	@ args = 0, pretend = 0, frame = 16
	@ frame_needed = 0, uses_anonymous_args = 0
	push	{lr}
.LCFI32:
	sub	sp, sp, #20
.LCFI33:
	str	r0, [sp, #12]
	str	r1, [sp, #8]
	str	r2, [sp, #4]
	.loc 5 112 25
	ldr	r2, [sp, #4]
	ldr	r1, [sp, #8]
	ldr	r0, [sp, #12]
	bl	_ZN6tflite12_GLOBAL__N_115GetMutableInputEPK13TfLiteContextPK10TfLiteNodei
	mov	r3, r0
	.loc 5 113 1
	mov	r0, r3
	add	sp, sp, #20
.LCFI34:
	@ sp needed
	ldr	pc, [sp], #4
.LFE3240:
	.size	_ZN6tflite8GetInputEPK13TfLiteContextPK10TfLiteNodei, .-_ZN6tflite8GetInputEPK13TfLiteContextPK10TfLiteNodei
	.section	.text._ZN6tflite12GetInputSafeEPK13TfLiteContextPK10TfLiteNodeiPPK12TfLiteTensor,"ax",%progbits
	.align	1
	.global	_ZN6tflite12GetInputSafeEPK13TfLiteContextPK10TfLiteNodeiPPK12TfLiteTensor
	.syntax unified
	.thumb
	.thumb_func
	.type	_ZN6tflite12GetInputSafeEPK13TfLiteContextPK10TfLiteNodeiPPK12TfLiteTensor, %function
_ZN6tflite12GetInputSafeEPK13TfLiteContextPK10TfLiteNodeiPPK12TfLiteTensor:
.LFB3241:
	.loc 5 116 67
	@ args = 0, pretend = 0, frame = 16
	@ frame_needed = 0, uses_anonymous_args = 0
	push	{lr}
.LCFI35:
	sub	sp, sp, #20
.LCFI36:
	str	r0, [sp, #12]
	str	r1, [sp, #8]
	str	r2, [sp, #4]
	str	r3, [sp]
	.loc 5 117 29
	ldr	r3, [sp]
	ldr	r2, [sp, #4]
	ldr	r1, [sp, #8]
	ldr	r0, [sp, #12]
	bl	_ZN6tflite12_GLOBAL__N_119GetMutableInputSafeEPK13TfLiteContextPK10TfLiteNodeiPPK12TfLiteTensor
	mov	r3, r0
	.loc 5 118 1
	mov	r0, r3
	add	sp, sp, #20
.LCFI37:
	@ sp needed
	ldr	pc, [sp], #4
.LFE3241:
	.size	_ZN6tflite12GetInputSafeEPK13TfLiteContextPK10TfLiteNodeiPPK12TfLiteTensor, .-_ZN6tflite12GetInputSafeEPK13TfLiteContextPK10TfLiteNodeiPPK12TfLiteTensor
	.section	.text._ZN6tflite16GetVariableInputEP13TfLiteContextPK10TfLiteNodei,"ax",%progbits
	.align	1
	.global	_ZN6tflite16GetVariableInputEP13TfLiteContextPK10TfLiteNodei
	.syntax unified
	.thumb
	.thumb_func
	.type	_ZN6tflite16GetVariableInputEP13TfLiteContextPK10TfLiteNodei, %function
_ZN6tflite16GetVariableInputEP13TfLiteContextPK10TfLiteNodei:
.LFB3242:
	.loc 5 121 43
	@ args = 0, pretend = 0, frame = 24
	@ frame_needed = 0, uses_anonymous_args = 0
	push	{lr}
.LCFI38:
	sub	sp, sp, #28
.LCFI39:
	str	r0, [sp, #12]
	str	r1, [sp, #8]
	str	r2, [sp, #4]
	.loc 5 122 41
	ldr	r2, [sp, #4]
	ldr	r1, [sp, #8]
	ldr	r0, [sp, #12]
	bl	_ZN6tflite12_GLOBAL__N_115GetMutableInputEPK13TfLiteContextPK10TfLiteNodei
	str	r0, [sp, #20]
	.loc 5 123 3
	ldr	r3, [sp, #20]
	cmp	r3, #0
	bne	.L41
	.loc 5 123 33 discriminator 1
	movs	r3, #0
	b	.L42
.L41:
	.loc 5 124 18
	ldr	r3, [sp, #20]
	ldrb	r3, [r3, #45]	@ zero_extendqisi2
	.loc 5 124 30
	cmp	r3, #0
	beq	.L43
	.loc 5 124 30 is_stmt 0 discriminator 1
	ldr	r3, [sp, #20]
	.loc 5 124 41 is_stmt 1 discriminator 1
	b	.L45
.L43:
	.loc 5 124 30 discriminator 2
	movs	r3, #0
.L45:
	.loc 5 124 41
	nop
.L42:
	.loc 5 125 1
	mov	r0, r3
	add	sp, sp, #28
.LCFI40:
	@ sp needed
	ldr	pc, [sp], #4
.LFE3242:
	.size	_ZN6tflite16GetVariableInputEP13TfLiteContextPK10TfLiteNodei, .-_ZN6tflite16GetVariableInputEP13TfLiteContextPK10TfLiteNodei
	.section	.text._ZN6tflite9GetOutputEP13TfLiteContextPK10TfLiteNodei,"ax",%progbits
	.align	1
	.global	_ZN6tflite9GetOutputEP13TfLiteContextPK10TfLiteNodei
	.syntax unified
	.thumb
	.thumb_func
	.type	_ZN6tflite9GetOutputEP13TfLiteContextPK10TfLiteNodei, %function
_ZN6tflite9GetOutputEP13TfLiteContextPK10TfLiteNodei:
.LFB3243:
	.loc 5 128 36
	@ args = 0, pretend = 0, frame = 24
	@ frame_needed = 0, uses_anonymous_args = 0
	push	{lr}
.LCFI41:
	sub	sp, sp, #28
.LCFI42:
	str	r0, [sp, #12]
	str	r1, [sp, #8]
	str	r2, [sp, #4]
	.loc 5 130 29
	ldr	r3, [sp, #8]
	ldr	r3, [r3, #4]
	.loc 5 129 50
	ldr	r2, [r3]
	.loc 5 130 50
	ldr	r3, [sp, #8]
	ldr	r3, [r3, #4]
	.loc 5 130 59
	adds	r3, r3, #4
	.loc 5 129 50
	ldr	r1, [sp, #4]
	ldr	r0, [sp, #12]
	bl	_ZN6tflite12_GLOBAL__N_122ValidateTensorIndexingEPK13TfLiteContextiiPKi
	str	r0, [sp, #20]
	.loc 5 131 3
	ldr	r3, [sp, #20]
	cmp	r3, #0
	bge	.L47
	.loc 5 132 12
	movs	r3, #0
	b	.L48
.L47:
	.loc 5 134 26
	ldr	r1, [sp, #20]
	ldr	r0, [sp, #12]
	bl	_ZN6tflite12_GLOBAL__N_116GetTensorAtIndexEPK13TfLiteContexti
	mov	r3, r0
	.loc 5 134 48
	nop
.L48:
	.loc 5 135 1
	mov	r0, r3
	add	sp, sp, #28
.LCFI43:
	@ sp needed
	ldr	pc, [sp], #4
.LFE3243:
	.size	_ZN6tflite9GetOutputEP13TfLiteContextPK10TfLiteNodei, .-_ZN6tflite9GetOutputEP13TfLiteContextPK10TfLiteNodei
	.section	.text._ZN6tflite13GetOutputSafeEPK13TfLiteContextPK10TfLiteNodeiPP12TfLiteTensor,"ax",%progbits
	.align	1
	.global	_ZN6tflite13GetOutputSafeEPK13TfLiteContextPK10TfLiteNodeiPP12TfLiteTensor
	.syntax unified
	.thumb
	.thumb_func
	.type	_ZN6tflite13GetOutputSafeEPK13TfLiteContextPK10TfLiteNodeiPP12TfLiteTensor, %function
_ZN6tflite13GetOutputSafeEPK13TfLiteContextPK10TfLiteNodeiPP12TfLiteTensor:
.LFB3244:
	.loc 5 138 62
	@ args = 0, pretend = 0, frame = 24
	@ frame_needed = 0, uses_anonymous_args = 0
	push	{lr}
.LCFI44:
	sub	sp, sp, #36
.LCFI45:
	str	r0, [sp, #20]
	str	r1, [sp, #16]
	str	r2, [sp, #12]
	str	r3, [sp, #8]
.LBB1378:
	.loc 5 140 3
	ldr	r3, [sp, #16]
	ldr	r3, [r3, #4]
	ldr	r2, [r3]
	ldr	r3, [sp, #16]
	ldr	r3, [r3, #4]
	adds	r1, r3, #4
	add	r3, sp, #24
	str	r3, [sp]
	mov	r3, r1
	ldr	r1, [sp, #12]
	ldr	r0, [sp, #20]
	bl	_ZN6tflite12_GLOBAL__N_126ValidateTensorIndexingSafeEPK13TfLiteContextiiPKiPi
	mov	r3, r0
	strb	r3, [sp, #31]
	ldrb	r3, [sp, #31]	@ zero_extendqisi2
	cmp	r3, #0
	beq	.L50
	.loc 5 140 3 is_stmt 0 discriminator 1
	ldrb	r3, [sp, #31]	@ zero_extendqisi2
	b	.L52
.L50:
.LBE1378:
	.loc 5 143 29 is_stmt 1
	ldr	r3, [sp, #24]
	mov	r1, r3
	ldr	r0, [sp, #20]
	bl	_ZN6tflite12_GLOBAL__N_116GetTensorAtIndexEPK13TfLiteContexti
	mov	r2, r0
	.loc 5 143 11
	ldr	r3, [sp, #8]
	str	r2, [r3]
	.loc 5 144 10
	movs	r3, #0
.L52:
	.loc 5 145 1 discriminator 1
	mov	r0, r3
	add	sp, sp, #36
.LCFI46:
	@ sp needed
	ldr	pc, [sp], #4
.LFE3244:
	.size	_ZN6tflite13GetOutputSafeEPK13TfLiteContextPK10TfLiteNodeiPP12TfLiteTensor, .-_ZN6tflite13GetOutputSafeEPK13TfLiteContextPK10TfLiteNodeiPP12TfLiteTensor
	.section	.text._ZN6tflite22GetOptionalInputTensorEPK13TfLiteContextPK10TfLiteNodei,"ax",%progbits
	.align	1
	.global	_ZN6tflite22GetOptionalInputTensorEPK13TfLiteContextPK10TfLiteNodei
	.syntax unified
	.thumb
	.thumb_func
	.type	_ZN6tflite22GetOptionalInputTensorEPK13TfLiteContextPK10TfLiteNodei, %function
_ZN6tflite22GetOptionalInputTensorEPK13TfLiteContextPK10TfLiteNodei:
.LFB3245:
	.loc 5 148 79
	@ args = 0, pretend = 0, frame = 16
	@ frame_needed = 0, uses_anonymous_args = 0
	push	{lr}
.LCFI47:
	sub	sp, sp, #20
.LCFI48:
	str	r0, [sp, #12]
	str	r1, [sp, #8]
	str	r2, [sp, #4]
	.loc 5 149 18
	ldr	r2, [sp, #4]
	ldr	r1, [sp, #8]
	ldr	r0, [sp, #12]
	bl	_ZN6tflite8GetInputEPK13TfLiteContextPK10TfLiteNodei
	mov	r3, r0
	.loc 5 150 1
	mov	r0, r3
	add	sp, sp, #20
.LCFI49:
	@ sp needed
	ldr	pc, [sp], #4
.LFE3245:
	.size	_ZN6tflite22GetOptionalInputTensorEPK13TfLiteContextPK10TfLiteNodei, .-_ZN6tflite22GetOptionalInputTensorEPK13TfLiteContextPK10TfLiteNodei
	.section	.text._ZN6tflite12GetTemporaryEP13TfLiteContextPK10TfLiteNodei,"ax",%progbits
	.align	1
	.global	_ZN6tflite12GetTemporaryEP13TfLiteContextPK10TfLiteNodei
	.syntax unified
	.thumb
	.thumb_func
	.type	_ZN6tflite12GetTemporaryEP13TfLiteContextPK10TfLiteNodei, %function
_ZN6tflite12GetTemporaryEP13TfLiteContextPK10TfLiteNodei:
.LFB3246:
	.loc 5 154 39
	@ args = 0, pretend = 0, frame = 24
	@ frame_needed = 0, uses_anonymous_args = 0
	push	{lr}
.LCFI50:
	sub	sp, sp, #28
.LCFI51:
	str	r0, [sp, #12]
	str	r1, [sp, #8]
	str	r2, [sp, #4]
	.loc 5 156 29
	ldr	r3, [sp, #8]
	ldr	r3, [r3, #12]
	.loc 5 155 50
	ldr	r2, [r3]
	.loc 5 156 54
	ldr	r3, [sp, #8]
	ldr	r3, [r3, #12]
	.loc 5 156 67
	adds	r3, r3, #4
	.loc 5 155 50
	ldr	r1, [sp, #4]
	ldr	r0, [sp, #12]
	bl	_ZN6tflite12_GLOBAL__N_122ValidateTensorIndexingEPK13TfLiteContextiiPKi
	str	r0, [sp, #20]
	.loc 5 157 3
	ldr	r3, [sp, #20]
	cmp	r3, #0
	bge	.L56
	.loc 5 158 12
	movs	r3, #0
	b	.L57
.L56:
	.loc 5 160 26
	ldr	r1, [sp, #20]
	ldr	r0, [sp, #12]
	bl	_ZN6tflite12_GLOBAL__N_116GetTensorAtIndexEPK13TfLiteContexti
	mov	r3, r0
	.loc 5 160 48
	nop
.L57:
	.loc 5 161 1
	mov	r0, r3
	add	sp, sp, #28
.LCFI52:
	@ sp needed
	ldr	pc, [sp], #4
.LFE3246:
	.size	_ZN6tflite12GetTemporaryEP13TfLiteContextPK10TfLiteNodei, .-_ZN6tflite12GetTemporaryEP13TfLiteContextPK10TfLiteNodei
	.section	.text._ZN6tflite16GetTemporarySafeEPK13TfLiteContextPK10TfLiteNodeiPP12TfLiteTensor,"ax",%progbits
	.align	1
	.global	_ZN6tflite16GetTemporarySafeEPK13TfLiteContextPK10TfLiteNodeiPP12TfLiteTensor
	.syntax unified
	.thumb
	.thumb_func
	.type	_ZN6tflite16GetTemporarySafeEPK13TfLiteContextPK10TfLiteNodeiPP12TfLiteTensor, %function
_ZN6tflite16GetTemporarySafeEPK13TfLiteContextPK10TfLiteNodeiPP12TfLiteTensor:
.LFB3247:
	.loc 5 165 54
	@ args = 0, pretend = 0, frame = 24
	@ frame_needed = 0, uses_anonymous_args = 0
	push	{lr}
.LCFI53:
	sub	sp, sp, #36
.LCFI54:
	str	r0, [sp, #20]
	str	r1, [sp, #16]
	str	r2, [sp, #12]
	str	r3, [sp, #8]
.LBB1379:
	.loc 5 167 3
	ldr	r3, [sp, #16]
	ldr	r3, [r3, #12]
	ldr	r2, [r3]
	ldr	r3, [sp, #16]
	ldr	r3, [r3, #12]
	adds	r1, r3, #4
	add	r3, sp, #24
	str	r3, [sp]
	mov	r3, r1
	ldr	r1, [sp, #12]
	ldr	r0, [sp, #20]
	bl	_ZN6tflite12_GLOBAL__N_126ValidateTensorIndexingSafeEPK13TfLiteContextiiPKiPi
	mov	r3, r0
	strb	r3, [sp, #31]
	ldrb	r3, [sp, #31]	@ zero_extendqisi2
	cmp	r3, #0
	beq	.L59
	.loc 5 167 3 is_stmt 0 discriminator 1
	ldrb	r3, [sp, #31]	@ zero_extendqisi2
	b	.L61
.L59:
.LBE1379:
	.loc 5 170 29 is_stmt 1
	ldr	r3, [sp, #24]
	mov	r1, r3
	ldr	r0, [sp, #20]
	bl	_ZN6tflite12_GLOBAL__N_116GetTensorAtIndexEPK13TfLiteContexti
	mov	r2, r0
	.loc 5 170 11
	ldr	r3, [sp, #8]
	str	r2, [r3]
	.loc 5 171 10
	movs	r3, #0
.L61:
	.loc 5 172 1 discriminator 1
	mov	r0, r3
	add	sp, sp, #36
.LCFI55:
	@ sp needed
	ldr	pc, [sp], #4
.LFE3247:
	.size	_ZN6tflite16GetTemporarySafeEPK13TfLiteContextPK10TfLiteNodeiPP12TfLiteTensor, .-_ZN6tflite16GetTemporarySafeEPK13TfLiteContextPK10TfLiteNodeiPP12TfLiteTensor
	.section	.text._ZN6tflite16GetIntermediatesEP13TfLiteContextPK10TfLiteNodei,"ax",%progbits
	.align	1
	.global	_ZN6tflite16GetIntermediatesEP13TfLiteContextPK10TfLiteNodei
	.syntax unified
	.thumb
	.thumb_func
	.type	_ZN6tflite16GetIntermediatesEP13TfLiteContextPK10TfLiteNodei, %function
_ZN6tflite16GetIntermediatesEP13TfLiteContextPK10TfLiteNodei:
.LFB3248:
	.loc 5 175 73
	@ args = 0, pretend = 0, frame = 24
	@ frame_needed = 0, uses_anonymous_args = 0
	push	{lr}
.LCFI56:
	sub	sp, sp, #28
.LCFI57:
	str	r0, [sp, #12]
	str	r1, [sp, #8]
	str	r2, [sp, #4]
	.loc 5 177 29
	ldr	r3, [sp, #8]
	ldr	r3, [r3, #8]
	.loc 5 176 50
	ldr	r2, [r3]
	.loc 5 177 56
	ldr	r3, [sp, #8]
	ldr	r3, [r3, #8]
	.loc 5 177 71
	adds	r3, r3, #4
	.loc 5 176 50
	ldr	r1, [sp, #4]
	ldr	r0, [sp, #12]
	bl	_ZN6tflite12_GLOBAL__N_122ValidateTensorIndexingEPK13TfLiteContextiiPKi
	str	r0, [sp, #20]
	.loc 5 178 3
	ldr	r3, [sp, #20]
	cmp	r3, #0
	bge	.L63
	.loc 5 179 12
	movs	r3, #0
	b	.L64
.L63:
	.loc 5 181 26
	ldr	r1, [sp, #20]
	ldr	r0, [sp, #12]
	bl	_ZN6tflite12_GLOBAL__N_116GetTensorAtIndexEPK13TfLiteContexti
	mov	r3, r0
	.loc 5 181 48
	nop
.L64:
	.loc 5 182 1
	mov	r0, r3
	add	sp, sp, #28
.LCFI58:
	@ sp needed
	ldr	pc, [sp], #4
.LFE3248:
	.size	_ZN6tflite16GetIntermediatesEP13TfLiteContextPK10TfLiteNodei, .-_ZN6tflite16GetIntermediatesEP13TfLiteContextPK10TfLiteNodei
	.section	.text._ZN6tflite20GetIntermediatesSafeEPK13TfLiteContextPK10TfLiteNodeiPP12TfLiteTensor,"ax",%progbits
	.align	1
	.global	_ZN6tflite20GetIntermediatesSafeEPK13TfLiteContextPK10TfLiteNodeiPP12TfLiteTensor
	.syntax unified
	.thumb
	.thumb_func
	.type	_ZN6tflite20GetIntermediatesSafeEPK13TfLiteContextPK10TfLiteNodeiPP12TfLiteTensor, %function
_ZN6tflite20GetIntermediatesSafeEPK13TfLiteContextPK10TfLiteNodeiPP12TfLiteTensor:
.LFB3249:
	.loc 5 186 58
	@ args = 0, pretend = 0, frame = 24
	@ frame_needed = 0, uses_anonymous_args = 0
	push	{lr}
.LCFI59:
	sub	sp, sp, #36
.LCFI60:
	str	r0, [sp, #20]
	str	r1, [sp, #16]
	str	r2, [sp, #12]
	str	r3, [sp, #8]
.LBB1380:
	.loc 5 188 3
	ldr	r3, [sp, #16]
	ldr	r3, [r3, #8]
	ldr	r2, [r3]
	ldr	r3, [sp, #16]
	ldr	r3, [r3, #8]
	adds	r1, r3, #4
	add	r3, sp, #24
	str	r3, [sp]
	mov	r3, r1
	ldr	r1, [sp, #12]
	ldr	r0, [sp, #20]
	bl	_ZN6tflite12_GLOBAL__N_126ValidateTensorIndexingSafeEPK13TfLiteContextiiPKiPi
	mov	r3, r0
	strb	r3, [sp, #31]
	ldrb	r3, [sp, #31]	@ zero_extendqisi2
	cmp	r3, #0
	beq	.L66
	.loc 5 188 3 is_stmt 0 discriminator 1
	ldrb	r3, [sp, #31]	@ zero_extendqisi2
	b	.L68
.L66:
.LBE1380:
	.loc 5 191 29 is_stmt 1
	ldr	r3, [sp, #24]
	mov	r1, r3
	ldr	r0, [sp, #20]
	bl	_ZN6tflite12_GLOBAL__N_116GetTensorAtIndexEPK13TfLiteContexti
	mov	r2, r0
	.loc 5 191 11
	ldr	r3, [sp, #8]
	str	r2, [r3]
	.loc 5 192 10
	movs	r3, #0
.L68:
	.loc 5 193 1 discriminator 1
	mov	r0, r3
	add	sp, sp, #36
.LCFI61:
	@ sp needed
	ldr	pc, [sp], #4
.LFE3249:
	.size	_ZN6tflite20GetIntermediatesSafeEPK13TfLiteContextPK10TfLiteNodeiPP12TfLiteTensor, .-_ZN6tflite20GetIntermediatesSafeEPK13TfLiteContextPK10TfLiteNodeiPP12TfLiteTensor
	.section	.text._ZN6tflite37PopulateConvolutionQuantizationParamsEP13TfLiteContextPK12TfLiteTensorS4_S4_PS2_RK21TfLiteFusedActivationPiS9_S9_S9_S9_S9_,"ax",%progbits
	.align	1
	.global	_ZN6tflite37PopulateConvolutionQuantizationParamsEP13TfLiteContextPK12TfLiteTensorS4_S4_PS2_RK21TfLiteFusedActivationPiS9_S9_S9_S9_S9_
	.syntax unified
	.thumb
	.thumb_func
	.type	_ZN6tflite37PopulateConvolutionQuantizationParamsEP13TfLiteContextPK12TfLiteTensorS4_S4_PS2_RK21TfLiteFusedActivationPiS9_S9_S9_S9_S9_, %function
_ZN6tflite37PopulateConvolutionQuantizationParamsEP13TfLiteContextPK12TfLiteTensorS4_S4_PS2_RK21TfLiteFusedActivationPiS9_S9_S9_S9_S9_:
.LFB3250:
	.loc 5 202 66
	@ args = 32, pretend = 0, frame = 24
	@ frame_needed = 0, uses_anonymous_args = 0
	push	{lr}
.LCFI62:
	sub	sp, sp, #68
.LCFI63:
	str	r0, [sp, #52]
	str	r1, [sp, #48]
	str	r2, [sp, #44]
	str	r3, [sp, #40]
	.loc 5 203 15
	ldr	r3, [sp, #44]
	ldr	r3, [r3, #52]
	str	r3, [sp, #60]
	.loc 5 208 47
	ldr	r3, [sp, #60]
	ldr	r3, [r3]
	.loc 5 205 47
	ldr	r3, [r3]
	str	r3, [sp, #32]
	ldr	r3, [sp, #100]
	str	r3, [sp, #28]
	ldr	r3, [sp, #96]
	str	r3, [sp, #24]
	ldr	r3, [sp, #92]
	str	r3, [sp, #20]
	ldr	r3, [sp, #88]
	str	r3, [sp, #16]
	ldr	r3, [sp, #84]
	str	r3, [sp, #12]
	ldr	r3, [sp, #80]
	str	r3, [sp, #8]
	ldr	r3, [sp, #76]
	str	r3, [sp, #4]
	ldr	r3, [sp, #72]
	str	r3, [sp]
	ldr	r3, [sp, #40]
	ldr	r2, [sp, #44]
	ldr	r1, [sp, #48]
	ldr	r0, [sp, #52]
	bl	_ZN6tflite37PopulateConvolutionQuantizationParamsEP13TfLiteContextPK12TfLiteTensorS4_S4_PS2_RK21TfLiteFusedActivationPiS9_S9_S9_S9_S9_i
	mov	r3, r0
	.loc 5 209 1
	mov	r0, r3
	add	sp, sp, #68
.LCFI64:
	@ sp needed
	ldr	pc, [sp], #4
.LFE3250:
	.size	_ZN6tflite37PopulateConvolutionQuantizationParamsEP13TfLiteContextPK12TfLiteTensorS4_S4_PS2_RK21TfLiteFusedActivationPiS9_S9_S9_S9_S9_, .-_ZN6tflite37PopulateConvolutionQuantizationParamsEP13TfLiteContextPK12TfLiteTensorS4_S4_PS2_RK21TfLiteFusedActivationPiS9_S9_S9_S9_S9_
	.section .rodata
	.align	2
.LC2:
	.ascii	"C:\\TensorFlow\\tflite-micro\\tensorflow\\lite\\ker"
	.ascii	"nels\\kernel_util.cc\000"
	.align	2
.LC3:
	.ascii	"%s:%d %s != %s (%d != %d)\000"
	.align	2
.LC4:
	.ascii	"kTfLiteAffineQuantization\000"
	.align	2
.LC5:
	.ascii	"input->quantization.type\000"
	.align	2
.LC6:
	.ascii	"filter->quantization.type\000"
	.align	2
.LC7:
	.ascii	"%s:%d %s was not true.\000"
	.align	2
.LC8:
	.ascii	"affine_quantization\000"
	.align	2
.LC9:
	.ascii	"affine_quantization->scale\000"
	.align	2
.LC10:
	.ascii	"input->type == kTfLiteInt8 || input->type == kTfLit"
	.ascii	"eInt16\000"
	.align	2
.LC11:
	.ascii	"filter->type == kTfLiteInt8 || filter->type == kTfL"
	.ascii	"iteInt4\000"
	.align	2
.LC12:
	.ascii	"num_channels\000"
	.align	2
.LC13:
	.ascii	"affine_quantization->scale->size\000"
	.align	2
.LC14:
	.ascii	"filter->dims->data[affine_quantization->quantized_d"
	.ascii	"imension]\000"
	.global	__aeabi_f2d
	.global	__aeabi_dmul
	.global	__aeabi_ddiv
	.section	.text._ZN6tflite37PopulateConvolutionQuantizationParamsEP13TfLiteContextPK12TfLiteTensorS4_S4_PS2_RK21TfLiteFusedActivationPiS9_S9_S9_S9_S9_i,"ax",%progbits
	.align	1
	.global	_ZN6tflite37PopulateConvolutionQuantizationParamsEP13TfLiteContextPK12TfLiteTensorS4_S4_PS2_RK21TfLiteFusedActivationPiS9_S9_S9_S9_S9_i
	.syntax unified
	.thumb
	.thumb_func
	.type	_ZN6tflite37PopulateConvolutionQuantizationParamsEP13TfLiteContextPK12TfLiteTensorS4_S4_PS2_RK21TfLiteFusedActivationPiS9_S9_S9_S9_S9_i, %function
_ZN6tflite37PopulateConvolutionQuantizationParamsEP13TfLiteContextPK12TfLiteTensorS4_S4_PS2_RK21TfLiteFusedActivationPiS9_S9_S9_S9_S9_i:
.LFB3251:
	.loc 5 218 23
	@ args = 36, pretend = 0, frame = 88
	@ frame_needed = 0, uses_anonymous_args = 0
	push	{r4, r5, lr}
.LCFI65:
	sub	sp, sp, #108
.LCFI66:
	str	r0, [sp, #28]
	str	r1, [sp, #24]
	str	r2, [sp, #20]
	str	r3, [sp, #16]
	.loc 5 219 3
	ldr	r3, [sp, #24]
	ldrb	r3, [r3, #48]	@ zero_extendqisi2
	cmp	r3, #1
	beq	.L72
	.loc 5 219 3 is_stmt 0 discriminator 1
	ldr	r3, [sp, #28]
	ldr	r4, [r3, #20]
	ldr	r3, [sp, #24]
	ldrb	r3, [r3, #48]	@ zero_extendqisi2
	mov	r2, r3
	movs	r3, #1
	str	r3, [sp, #12]
	str	r2, [sp, #8]
	ldr	r3, .L89
	str	r3, [sp, #4]
	ldr	r3, .L89+4
	str	r3, [sp]
	movs	r3, #219
	ldr	r2, .L89+8
	ldr	r1, .L89+12
	ldr	r0, [sp, #28]
	blx	r4
.LVL3:
	movs	r3, #1
	b	.L73
.L72:
	.loc 5 221 3 is_stmt 1
	ldr	r3, [sp, #20]
	ldrb	r3, [r3, #48]	@ zero_extendqisi2
	cmp	r3, #1
	beq	.L74
	.loc 5 221 3 is_stmt 0 discriminator 1
	ldr	r3, [sp, #28]
	ldr	r4, [r3, #20]
	ldr	r3, [sp, #20]
	ldrb	r3, [r3, #48]	@ zero_extendqisi2
	mov	r2, r3
	movs	r3, #1
	str	r3, [sp, #12]
	str	r2, [sp, #8]
	ldr	r3, .L89
	str	r3, [sp, #4]
	ldr	r3, .L89+16
	str	r3, [sp]
	movs	r3, #221
	ldr	r2, .L89+8
	ldr	r1, .L89+12
	ldr	r0, [sp, #28]
	blx	r4
.LVL4:
	movs	r3, #1
	b	.L73
.L74:
	.loc 5 230 15 is_stmt 1
	ldr	r3, [sp, #20]
	ldr	r3, [r3, #52]
	str	r3, [sp, #96]
	.loc 5 232 3
	ldr	r3, [sp, #96]
	cmp	r3, #0
	bne	.L75
	.loc 5 232 3 is_stmt 0 discriminator 1
	ldr	r3, [sp, #28]
	ldr	r4, [r3, #20]
	ldr	r3, .L89+20
	str	r3, [sp]
	movs	r3, #232
	ldr	r2, .L89+8
	ldr	r1, .L89+24
	ldr	r0, [sp, #28]
	blx	r4
.LVL5:
	movs	r3, #1
	b	.L73
.L75:
	.loc 5 233 3 is_stmt 1
	ldr	r3, [sp, #96]
	ldr	r3, [r3]
	cmp	r3, #0
	bne	.L76
	.loc 5 233 3 is_stmt 0 discriminator 1
	ldr	r3, [sp, #28]
	ldr	r4, [r3, #20]
	ldr	r3, .L89+28
	str	r3, [sp]
	movs	r3, #233
	ldr	r2, .L89+8
	ldr	r1, .L89+24
	ldr	r0, [sp, #28]
	blx	r4
.LVL6:
	movs	r3, #1
	b	.L73
.L76:
	.loc 5 234 52 is_stmt 1
	ldr	r3, [sp, #96]
	ldr	r3, [r3]
	.loc 5 234 59
	ldr	r3, [r3]
	.loc 5 234 14
	cmp	r3, #1
	ite	gt
	movgt	r3, #1
	movle	r3, #0
	strb	r3, [sp, #95]
	.loc 5 235 3
	ldrb	r3, [sp, #95]	@ zero_extendqisi2
	cmp	r3, #0
	beq	.L77
	.loc 5 237 5
	ldr	r3, [sp, #24]
	ldrb	r3, [r3]	@ zero_extendqisi2
	cmp	r3, #9
	beq	.L78
	.loc 5 237 5 is_stmt 0 discriminator 1
	ldr	r3, [sp, #24]
	ldrb	r3, [r3]	@ zero_extendqisi2
	cmp	r3, #7
	beq	.L78
	.loc 5 237 5 discriminator 2
	ldr	r3, [sp, #28]
	ldr	r4, [r3, #20]
	ldr	r3, .L89+32
	str	r3, [sp]
	movs	r3, #237
	ldr	r2, .L89+8
	ldr	r1, .L89+24
	ldr	r0, [sp, #28]
	blx	r4
.LVL7:
	movs	r3, #1
	b	.L73
.L78:
	.loc 5 239 5 is_stmt 1
	ldr	r3, [sp, #20]
	ldrb	r3, [r3]	@ zero_extendqisi2
	cmp	r3, #9
	beq	.L79
	.loc 5 239 5 is_stmt 0 discriminator 1
	ldr	r3, [sp, #20]
	ldrb	r3, [r3]	@ zero_extendqisi2
	cmp	r3, #18
	beq	.L79
	.loc 5 239 5 discriminator 2
	ldr	r3, [sp, #28]
	ldr	r4, [r3, #20]
	ldr	r3, .L89+36
	str	r3, [sp]
	movs	r3, #239
	ldr	r2, .L89+8
	ldr	r1, .L89+24
	ldr	r0, [sp, #28]
	blx	r4
.LVL8:
	movs	r3, #1
	b	.L73
.L79:
	.loc 5 241 5 is_stmt 1
	ldr	r3, [sp, #96]
	ldr	r3, [r3]
	ldr	r3, [r3]
	ldr	r2, [sp, #152]
	cmp	r2, r3
	beq	.L80
	.loc 5 241 5 is_stmt 0 discriminator 1
	ldr	r3, [sp, #28]
	ldr	r4, [r3, #20]
	ldr	r3, [sp, #96]
	ldr	r3, [r3]
	ldr	r3, [r3]
	ldr	r2, [sp, #152]
	str	r2, [sp, #12]
	str	r3, [sp, #8]
	ldr	r3, .L89+40
	str	r3, [sp, #4]
	ldr	r3, .L89+44
	str	r3, [sp]
	movs	r3, #241
	ldr	r2, .L89+8
	ldr	r1, .L89+12
	ldr	r0, [sp, #28]
	blx	r4
.LVL9:
	movs	r3, #1
	b	.L73
.L80:
	.loc 5 242 5 is_stmt 1
	ldr	r3, [sp, #20]
	ldr	r2, [r3, #8]
	ldr	r3, [sp, #96]
	ldr	r3, [r3, #8]
	lsls	r3, r3, #2
	add	r3, r3, r2
	ldr	r3, [r3, #4]
	ldr	r2, [sp, #152]
	cmp	r2, r3
	beq	.L77
	.loc 5 242 5 is_stmt 0 discriminator 1
	ldr	r3, [sp, #28]
	ldr	r4, [r3, #20]
	ldr	r3, [sp, #20]
	ldr	r2, [r3, #8]
	ldr	r3, [sp, #96]
	ldr	r3, [r3, #8]
	lsls	r3, r3, #2
	add	r3, r3, r2
	ldr	r3, [r3, #4]
	str	r3, [sp, #12]
	ldr	r3, [sp, #152]
	str	r3, [sp, #8]
	ldr	r3, .L89+48
	str	r3, [sp, #4]
	ldr	r3, .L89+40
	str	r3, [sp]
	movs	r3, #242
	ldr	r2, .L89+8
	ldr	r1, .L89+12
	ldr	r0, [sp, #28]
	blx	r4
.LVL10:
	movs	r3, #1
	b	.L73
.L77:
	.loc 5 248 15 is_stmt 1
	ldr	r3, [sp, #24]
	ldr	r3, [r3, #12]	@ float
	str	r3, [sp, #88]	@ float
	.loc 5 249 15
	ldr	r3, [sp, #120]
	ldr	r3, [r3, #12]	@ float
	str	r3, [sp, #84]	@ float
	.loc 5 250 53
	ldr	r3, [sp, #96]
	ldr	r3, [r3]
	.loc 5 250 16
	adds	r3, r3, #4
	str	r3, [sp, #80]
.LBB1381:
	.loc 5 251 12
	movs	r3, #0
	str	r3, [sp, #100]
	.loc 5 251 3
	b	.L81
.L84:
.LBB1382:
	.loc 5 254 40
	ldrb	r3, [sp, #95]	@ zero_extendqisi2
	cmp	r3, #0
	beq	.L82
	.loc 5 254 56 discriminator 1
	ldr	r3, [sp, #100]
	.loc 5 254 57 discriminator 1
	lsls	r3, r3, #2
	ldr	r2, [sp, #80]
	add	r3, r3, r2
	.loc 5 254 40 discriminator 1
	ldr	r3, [r3]	@ float
	b	.L83
.L82:
	.loc 5 254 40 is_stmt 0 discriminator 2
	ldr	r3, [sp, #80]
	ldr	r3, [r3]	@ float
.L83:
	.loc 5 254 17 is_stmt 1 discriminator 4
	str	r3, [sp, #72]	@ float
	.loc 5 255 18 discriminator 4
	ldr	r0, [sp, #72]	@ float
	bl	__aeabi_f2d
	mov	r2, r0
	mov	r3, r1
	strd	r2, [sp, #64]
	.loc 5 256 43 discriminator 4
	ldr	r0, [sp, #88]	@ float
	bl	__aeabi_f2d
	.loc 5 256 76 discriminator 4
	ldrd	r2, [sp, #64]
	bl	__aeabi_dmul
	mov	r2, r0
	mov	r3, r1
	mov	r4, r2
	mov	r5, r3
	.loc 5 258 43 discriminator 4
	ldr	r0, [sp, #84]	@ float
	bl	__aeabi_f2d
	mov	r2, r0
	mov	r3, r1
	.loc 5 256 18 discriminator 4
	mov	r0, r4
	mov	r1, r5
	bl	__aeabi_ddiv
	mov	r2, r0
	mov	r3, r1
	strd	r2, [sp, #56]
	.loc 5 261 23 discriminator 4
	add	r2, sp, #48
	add	r3, sp, #52
	mov	r1, r2
	mov	r0, r3
	vldr.64	d0, [sp, #56]
	bl	_ZN6tflite18QuantizeMultiplierEdPiS0_
	.loc 5 262 28 discriminator 4
	ldr	r3, [sp, #100]
	.loc 5 262 29 discriminator 4
	lsls	r3, r3, #2
	ldr	r2, [sp, #144]
	add	r3, r3, r2
	.loc 5 262 31 discriminator 4
	ldr	r2, [sp, #52]
	str	r2, [r3]
	.loc 5 263 23 discriminator 4
	ldr	r3, [sp, #100]
	.loc 5 263 24 discriminator 4
	lsls	r3, r3, #2
	ldr	r2, [sp, #148]
	add	r3, r3, r2
	.loc 5 263 26 discriminator 4
	ldr	r2, [sp, #48]
	str	r2, [r3]
.LBE1382:
	.loc 5 251 3 discriminator 4
	ldr	r3, [sp, #100]
	adds	r3, r3, #1
	str	r3, [sp, #100]
.L81:
	.loc 5 251 21 discriminator 2
	ldr	r2, [sp, #100]
	ldr	r3, [sp, #152]
	cmp	r2, r3
	blt	.L84
.LBE1381:
.LBB1383:
	.loc 5 269 14
	ldr	r3, [sp, #24]
	ldrb	r3, [r3]	@ zero_extendqisi2
	.loc 5 269 3
	cmp	r3, #3
	bne	.L85
.LBB1384:
	.loc 5 271 12
	mov	r2, #0
	mov	r3, #0
	strd	r2, [sp, #40]
.LBB1385:
	.loc 5 272 5
	add	r3, sp, #40
	str	r3, [sp, #4]
	ldr	r3, [sp, #120]
	str	r3, [sp]
	ldr	r3, [sp, #16]
	ldr	r2, [sp, #20]
	ldr	r1, [sp, #24]
	ldr	r0, [sp, #28]
	bl	_ZN6tflite32GetQuantizedConvolutionMultiplerEP13TfLiteContextPK12TfLiteTensorS4_S4_PS2_Pd
	mov	r3, r0
	strb	r3, [sp, #79]
	ldrb	r3, [sp, #79]	@ zero_extendqisi2
	cmp	r3, #0
	beq	.L86
	.loc 5 272 5 is_stmt 0 discriminator 1
	ldrb	r3, [sp, #79]	@ zero_extendqisi2
	b	.L73
.L90:
	.align	2
.L89:
	.word	.LC4
	.word	.LC5
	.word	.LC2
	.word	.LC3
	.word	.LC6
	.word	.LC8
	.word	.LC7
	.word	.LC9
	.word	.LC10
	.word	.LC11
	.word	.LC12
	.word	.LC13
	.word	.LC14
.L86:
.LBE1385:
	.loc 5 277 23 is_stmt 1
	vldr.64	d7, [sp, #40]
	add	r3, sp, #36
	mov	r1, r3
	ldr	r0, [sp, #128]
	vmov.f32	s0, s14
	vmov.f32	s1, s15
	bl	_ZN6tflite18QuantizeMultiplierEdPiS0_
	.loc 5 278 14
	ldr	r3, [sp, #36]
	rsbs	r2, r3, #0
	.loc 5 278 12
	ldr	r3, [sp, #132]
	str	r2, [r3]
.L85:
.LBE1384:
.LBE1383:
.LBB1386:
	.loc 5 280 14
	ldr	r3, [sp, #24]
	ldrb	r3, [r3]	@ zero_extendqisi2
	.loc 5 280 3
	cmp	r3, #9
	beq	.L87
	.loc 5 280 44 discriminator 1
	ldr	r3, [sp, #24]
	ldrb	r3, [r3]	@ zero_extendqisi2
	.loc 5 280 34 discriminator 1
	cmp	r3, #3
	beq	.L87
	.loc 5 281 14 discriminator 2
	ldr	r3, [sp, #24]
	ldrb	r3, [r3]	@ zero_extendqisi2
	.loc 5 280 65 discriminator 2
	cmp	r3, #7
	bne	.L88
.L87:
.LBB1387:
.LBB1388:
	.loc 5 282 5
	ldr	r3, [sp, #124]
	ldrb	r1, [r3]	@ zero_extendqisi2
	ldr	r3, [sp, #140]
	str	r3, [sp]
	ldr	r3, [sp, #136]
	ldr	r2, [sp, #120]
	ldr	r0, [sp, #28]
	bl	_ZN6tflite33CalculateActivationRangeQuantizedEP13TfLiteContext21TfLiteFusedActivationP12TfLiteTensorPiS5_
	mov	r3, r0
	strb	r3, [sp, #78]
	ldrb	r3, [sp, #78]	@ zero_extendqisi2
	cmp	r3, #0
	beq	.L88
	.loc 5 282 5 is_stmt 0 discriminator 1
	ldrb	r3, [sp, #78]	@ zero_extendqisi2
	b	.L73
.L88:
.LBE1388:
.LBE1387:
.LBE1386:
	.loc 5 286 10 is_stmt 1
	movs	r3, #0
.L73:
	.loc 5 287 1
	mov	r0, r3
	add	sp, sp, #108
.LCFI67:
	@ sp needed
	pop	{r4, r5, pc}
.LFE3251:
	.size	_ZN6tflite37PopulateConvolutionQuantizationParamsEP13TfLiteContextPK12TfLiteTensorS4_S4_PS2_RK21TfLiteFusedActivationPiS9_S9_S9_S9_S9_i, .-_ZN6tflite37PopulateConvolutionQuantizationParamsEP13TfLiteContextPK12TfLiteTensorS4_S4_PS2_RK21TfLiteFusedActivationPiS9_S9_S9_S9_S9_i
	.global	__aeabi_dsub
	.global	__aeabi_dcmple
	.section .rodata
	.align	2
.LC15:
	.ascii	"scale_diff / output_scale <= 0.02\000"
	.section	.text._ZN6tflite32GetQuantizedConvolutionMultiplerEP13TfLiteContextPK12TfLiteTensorS4_S4_PS2_Pd,"ax",%progbits
	.align	1
	.global	_ZN6tflite32GetQuantizedConvolutionMultiplerEP13TfLiteContextPK12TfLiteTensorS4_S4_PS2_Pd
	.syntax unified
	.thumb
	.thumb_func
	.type	_ZN6tflite32GetQuantizedConvolutionMultiplerEP13TfLiteContextPK12TfLiteTensorS4_S4_PS2_Pd, %function
_ZN6tflite32GetQuantizedConvolutionMultiplerEP13TfLiteContextPK12TfLiteTensorS4_S4_PS2_Pd:
.LFB3252:
	.loc 5 294 67
	@ args = 8, pretend = 0, frame = 56
	@ frame_needed = 0, uses_anonymous_args = 0
	push	{r4, r5, r6, r7, lr}
.LCFI68:
	sub	sp, sp, #68
.LCFI69:
	str	r0, [sp, #20]
	str	r1, [sp, #16]
	str	r2, [sp, #12]
	str	r3, [sp, #8]
	.loc 5 295 72
	ldr	r3, [sp, #16]
	ldr	r3, [r3, #12]	@ float
	.loc 5 295 38
	mov	r0, r3	@ float
	bl	__aeabi_f2d
	mov	r6, r0
	mov	r7, r1
	.loc 5 296 73
	ldr	r3, [sp, #12]
	ldr	r3, [r3, #12]	@ float
	.loc 5 296 38
	mov	r0, r3	@ float
	bl	__aeabi_f2d
	mov	r2, r0
	mov	r3, r1
	.loc 5 295 16
	mov	r0, r6
	mov	r1, r7
	bl	__aeabi_dmul
	mov	r2, r0
	mov	r3, r1
	strd	r2, [sp, #56]
.LBB1389:
	.loc 5 298 3
	ldr	r3, [sp, #8]
	cmp	r3, #0
	beq	.L92
.LBB1390:
	.loc 5 299 64
	ldr	r3, [sp, #8]
	ldr	r3, [r3, #12]	@ float
	.loc 5 299 18
	mov	r0, r3	@ float
	bl	__aeabi_f2d
	mov	r2, r0
	mov	r3, r1
	strd	r2, [sp, #48]
	.loc 5 317 39
	ldrd	r2, [sp, #48]
	ldrd	r0, [sp, #56]
	bl	__aeabi_dsub
	mov	r2, r0
	mov	r3, r1
	strd	r2, [sp, #24]
.LBB1391:
.LBB1392:
	.file 6 "C:/Program Files/SEGGER/SEGGER Embedded Studio for ARM 7.10a/source/libcxx/include/math.h"
	.loc 6 789 25
	ldr	r4, [sp, #24]
	ldr	r3, [sp, #28]
	bic	r5, r3, #-2147483648
.LBE1392:
.LBE1391:
	.loc 5 317 39
	strd	r4, [sp, #40]
	.loc 5 318 68
	ldr	r3, [sp, #88]
	ldr	r3, [r3, #12]	@ float
	.loc 5 318 18
	mov	r0, r3	@ float
	bl	__aeabi_f2d
	mov	r2, r0
	mov	r3, r1
	strd	r2, [sp, #32]
	.loc 5 320 5
	ldrd	r2, [sp, #32]
	ldrd	r0, [sp, #40]
	bl	__aeabi_ddiv
	mov	r2, r0
	mov	r3, r1
	mov	r0, r2
	mov	r1, r3
	movs	r3, #1
	mov	r4, r3
	adr	r3, .L96+12
	ldrd	r2, [r3]
	bl	__aeabi_dcmple
	mov	r3, r0
	cmp	r3, #0
	bne	.L94
	movs	r3, #0
	mov	r4, r3
.L94:
	uxtb	r3, r4
	eor	r3, r3, #1
	uxtb	r3, r3
	cmp	r3, #0
	beq	.L92
	.loc 5 320 5 is_stmt 0 discriminator 1
	ldr	r3, [sp, #20]
	ldr	r4, [r3, #20]
	ldr	r3, .L96
	str	r3, [sp]
	mov	r3, #320
	ldr	r2, .L96+4
	ldr	r1, .L96+8
	ldr	r0, [sp, #20]
	blx	r4
.LVL11:
	movs	r3, #1
	b	.L95
.L92:
.LBE1390:
.LBE1389:
	.loc 5 322 42 is_stmt 1
	ldr	r3, [sp, #92]
	str	r3, [sp]
	ldr	r3, [sp, #88]
	ldr	r2, [sp, #12]
	ldr	r1, [sp, #16]
	ldr	r0, [sp, #20]
	bl	_ZN6tflite32GetQuantizedConvolutionMultiplerEP13TfLiteContextPK12TfLiteTensorS4_PS2_Pd
	mov	r3, r0
	.loc 5 323 53
	nop
.L95:
	.loc 5 324 1
	mov	r0, r3
	add	sp, sp, #68
.LCFI70:
	@ sp needed
	pop	{r4, r5, r6, r7, pc}
.L97:
	.align	3
.L96:
	.word	.LC15
	.word	.LC2
	.word	.LC7
	.word	1202590843
	.word	1066695393
.LFE3252:
	.size	_ZN6tflite32GetQuantizedConvolutionMultiplerEP13TfLiteContextPK12TfLiteTensorS4_S4_PS2_Pd, .-_ZN6tflite32GetQuantizedConvolutionMultiplerEP13TfLiteContextPK12TfLiteTensorS4_S4_PS2_Pd
	.global	__aeabi_dcmpge
	.section .rodata
	.align	2
.LC16:
	.ascii	"input_product_scale >= 0\000"
	.section	.text._ZN6tflite32GetQuantizedConvolutionMultiplerEP13TfLiteContextPK12TfLiteTensorS4_PS2_Pd,"ax",%progbits
	.align	1
	.global	_ZN6tflite32GetQuantizedConvolutionMultiplerEP13TfLiteContextPK12TfLiteTensorS4_PS2_Pd
	.syntax unified
	.thumb
	.thumb_func
	.type	_ZN6tflite32GetQuantizedConvolutionMultiplerEP13TfLiteContextPK12TfLiteTensorS4_PS2_Pd, %function
_ZN6tflite32GetQuantizedConvolutionMultiplerEP13TfLiteContextPK12TfLiteTensorS4_PS2_Pd:
.LFB3253:
	.loc 5 330 67
	@ args = 4, pretend = 0, frame = 24
	@ frame_needed = 0, uses_anonymous_args = 0
	push	{r4, lr}
.LCFI71:
	sub	sp, sp, #32
.LCFI72:
	str	r0, [sp, #20]
	str	r1, [sp, #16]
	str	r2, [sp, #12]
	str	r3, [sp, #8]
	.loc 5 332 41
	ldr	r3, [sp, #16]
	vldr.32	s14, [r3, #12]
	.loc 5 332 64
	ldr	r3, [sp, #12]
	vldr.32	s15, [r3, #12]
	.loc 5 332 47
	vmul.f32	s15, s14, s15
	.loc 5 331 16
	vmov	r0, s15
	bl	__aeabi_f2d
	mov	r2, r0
	mov	r3, r1
	strd	r2, [sp, #24]
	.loc 5 333 3
	movs	r3, #1
	mov	r4, r3
	mov	r2, #0
	mov	r3, #0
	ldrd	r0, [sp, #24]
	bl	__aeabi_dcmpge
	mov	r3, r0
	cmp	r3, #0
	bne	.L99
	movs	r3, #0
	mov	r4, r3
.L99:
	uxtb	r3, r4
	eor	r3, r3, #1
	uxtb	r3, r3
	cmp	r3, #0
	beq	.L100
	.loc 5 333 3 is_stmt 0 discriminator 1
	ldr	r3, [sp, #20]
	ldr	r4, [r3, #20]
	ldr	r3, .L102
	str	r3, [sp]
	movw	r3, #333
	ldr	r2, .L102+4
	ldr	r1, .L102+8
	ldr	r0, [sp, #20]
	blx	r4
.LVL12:
	movs	r3, #1
	b	.L101
.L100:
	.loc 5 334 74 is_stmt 1
	ldr	r3, [sp, #8]
	ldr	r3, [r3, #12]	@ float
	.loc 5 334 39
	mov	r0, r3	@ float
	bl	__aeabi_f2d
	mov	r2, r0
	mov	r3, r1
	.loc 5 334 37
	ldrd	r0, [sp, #24]
	bl	__aeabi_ddiv
	mov	r2, r0
	mov	r3, r1
	.loc 5 334 15
	ldr	r1, [sp, #40]
	strd	r2, [r1]
	.loc 5 336 10
	movs	r3, #0
.L101:
	.loc 5 337 1
	mov	r0, r3
	add	sp, sp, #32
.LCFI73:
	@ sp needed
	pop	{r4, pc}
.L103:
	.align	2
.L102:
	.word	.LC16
	.word	.LC2
	.word	.LC7
.LFE3253:
	.size	_ZN6tflite32GetQuantizedConvolutionMultiplerEP13TfLiteContextPK12TfLiteTensorS4_PS2_Pd, .-_ZN6tflite32GetQuantizedConvolutionMultiplerEP13TfLiteContextPK12TfLiteTensorS4_PS2_Pd
	.section .rodata
	.align	2
.LC17:
	.ascii	"no_integer_overflow_from_quantization\000"
	.section	.text._ZN6tflite12_GLOBAL__N_18QuantizeEP13TfLiteContextfifRi,"ax",%progbits
	.align	1
	.syntax unified
	.thumb
	.thumb_func
	.type	_ZN6tflite12_GLOBAL__N_18QuantizeEP13TfLiteContextfifRi, %function
_ZN6tflite12_GLOBAL__N_18QuantizeEP13TfLiteContextfifRi:
.LFB3254:
	.loc 5 342 71
	@ args = 0, pretend = 0, frame = 32
	@ frame_needed = 0, uses_anonymous_args = 0
	push	{r4, lr}
.LCFI74:
	sub	sp, sp, #40
.LCFI75:
	str	r0, [sp, #28]
	vstr.32	s0, [sp, #24]
	str	r1, [sp, #20]
	vstr.32	s1, [sp, #16]
	str	r2, [sp, #12]
	.loc 5 343 32
	vldr.32	s14, [sp, #16]
	vldr.32	s15, [sp, #24]
	vdiv.f32	s13, s14, s15
	vmov.f32	s0, s13
	bl	_ZN6tflite11TfLiteRoundIfEET_S1_
	vstr.32	s0, [sp, #36]
.LBB1393:
.LBB1394:
.LBB1395:
.LBB1396:
	.file 7 "C:/Program Files/SEGGER/SEGGER Embedded Studio for ARM 7.10a/source/libcxx/include/limits"
	.loc 7 213 85
	vldr.32	s15, .L117	@ int
.LBE1396:
.LBE1395:
	.loc 7 450 97
	nop
.LBE1394:
.LBE1393:
	.loc 5 345 15
	vcvt.f32.s32	s15, s15
	.loc 5 345 71
	vldr.32	s14, [sp, #36]
	vcmpe.f32	s14, s15
	vmrs	APSR_nzcv, FPSCR
	blt	.L107
.LBB1397:
.LBB1398:
.LBB1399:
.LBB1400:
	.loc 7 214 85
	vldr.32	s15, .L117+4	@ int
.LBE1400:
.LBE1399:
	.loc 7 451 97
	nop
.LBE1398:
.LBE1397:
	.loc 5 346 15
	vcvt.f32.s32	s15, s15
	.loc 5 345 71
	vldr.32	s14, [sp, #36]
	vcmpe.f32	s14, s15
	vmrs	APSR_nzcv, FPSCR
	bhi	.L107
	.loc 5 345 71 is_stmt 0 discriminator 3
	movs	r3, #1
	b	.L112
.L107:
	.loc 5 345 71 discriminator 4
	movs	r3, #0
.L112:
	.loc 5 346 70 is_stmt 1
	strb	r3, [sp, #35]
	.loc 5 347 3
	ldrb	r3, [sp, #35]
	eor	r3, r3, #1
	uxtb	r3, r3
	cmp	r3, #0
	beq	.L113
	.loc 5 347 3 is_stmt 0 discriminator 1
	ldr	r3, [sp, #28]
	ldr	r4, [r3, #20]
	ldr	r3, .L117+8
	str	r3, [sp]
	movw	r3, #347
	ldr	r2, .L117+12
	ldr	r1, .L117+16
	ldr	r0, [sp, #28]
	blx	r4
.LVL13:
	movs	r3, #1
	b	.L114
.L113:
	.loc 5 348 20 is_stmt 1
	vldr.32	s15, [sp, #36]
	vcvt.s32.f32	s15, s15
	vmov	r2, s15	@ int
	.loc 5 348 18
	ldr	r3, [sp, #20]
	add	r2, r2, r3
	.loc 5 348 5
	ldr	r3, [sp, #12]
	str	r2, [r3]
	.loc 5 349 10
	movs	r3, #0
.L114:
	.loc 5 350 1
	mov	r0, r3
	add	sp, sp, #40
.LCFI76:
	@ sp needed
	pop	{r4, pc}
.L118:
	.align	2
.L117:
	.word	-2147483648
	.word	2147483647
	.word	.LC17
	.word	.LC2
	.word	.LC7
.LFE3254:
	.size	_ZN6tflite12_GLOBAL__N_18QuantizeEP13TfLiteContextfifRi, .-_ZN6tflite12_GLOBAL__N_18QuantizeEP13TfLiteContextfifRi
	.section	.text._ZN6tflite12_GLOBAL__N_137CalculateActivationRangeQuantizedImplEP13TfLiteContext21TfLiteFusedActivationiiP12TfLiteTensorPiS6_,"ax",%progbits
	.align	1
	.syntax unified
	.thumb
	.thumb_func
	.type	_ZN6tflite12_GLOBAL__N_137CalculateActivationRangeQuantizedImplEP13TfLiteContext21TfLiteFusedActivationiiP12TfLiteTensorPiS6_, %function
_ZN6tflite12_GLOBAL__N_137CalculateActivationRangeQuantizedImplEP13TfLiteContext21TfLiteFusedActivationiiP12TfLiteTensorPiS6_:
.LFB3257:
	.loc 5 354 77
	@ args = 12, pretend = 0, frame = 136
	@ frame_needed = 0, uses_anonymous_args = 0
	push	{r4, r5, r6, r7, r8, lr}
.LCFI77:
	sub	sp, sp, #136
.LCFI78:
	str	r0, [sp, #12]
	str	r2, [sp, #4]
	str	r3, [sp]
	mov	r3, r1
	strb	r3, [sp, #11]
	.loc 5 355 14
	ldr	r3, [sp, #160]
	ldr	r3, [r3, #12]	@ float
	str	r3, [sp, #132]	@ float
	.loc 5 356 14
	ldr	r3, [sp, #160]
	ldr	r3, [r3, #16]
	str	r3, [sp, #128]
.LBB1401:
	.loc 5 359 3
	ldrb	r3, [sp, #11]	@ zero_extendqisi2
	cmp	r3, #1
	bne	.L120
.LBB1402:
.LBB1403:
	.loc 5 360 5
	add	r3, sp, #36
	mov	r2, r3
	vldr.32	s1, .L161
	ldr	r1, [sp, #128]
	vldr.32	s0, [sp, #132]
	ldr	r0, [sp, #12]
	bl	_ZN6tflite12_GLOBAL__N_18QuantizeEP13TfLiteContextfifRi
	mov	r3, r0
	strb	r3, [sp, #123]
	ldrb	r3, [sp, #123]	@ zero_extendqisi2
	cmp	r3, #0
	beq	.L121
	.loc 5 360 5 is_stmt 0 discriminator 1
	ldrb	r3, [sp, #123]	@ zero_extendqisi2
	b	.L155
.L121:
	add	r3, sp, #4
	str	r3, [sp, #116]
	add	r3, sp, #36
	str	r3, [sp, #112]
	strb	r8, [sp, #32]
	ldr	r3, [sp, #116]
	str	r3, [sp, #108]
	ldr	r3, [sp, #112]
	str	r3, [sp, #104]
.LBE1403:
.LBB1404:
.LBB1405:
.LBB1406:
.LBB1407:
.LBB1408:
.LBB1409:
	.file 8 "C:/Program Files/SEGGER/SEGGER Embedded Studio for ARM 7.10a/source/libcxx/include/algorithm"
	.loc 8 715 71 is_stmt 1
	ldr	r3, [sp, #108]
	ldr	r2, [r3]
	ldr	r3, [sp, #104]
	ldr	r3, [r3]
	.loc 8 715 73
	cmp	r2, r3
	ite	lt
	movlt	r3, #1
	movge	r3, #0
	uxtb	r3, r3
.LBE1409:
.LBE1408:
	.loc 8 2626 29
	cmp	r3, #0
	beq	.L124
	ldr	r3, [sp, #112]
	.loc 8 2626 37
	b	.L156
.L124:
	.loc 8 2626 29
	ldr	r3, [sp, #116]
	.loc 8 2626 37
	nop
.L156:
.LBE1407:
.LBE1406:
	.loc 8 2635 46
	nop
.LBE1405:
.LBE1404:
	.loc 5 362 24
	ldr	r2, [r3]
	.loc 5 362 14
	ldr	r3, [sp, #164]
	str	r2, [r3]
	.loc 5 363 14
	ldr	r2, [sp]
	ldr	r3, [sp, #168]
	str	r2, [r3]
.LBE1402:
	b	.L128
.L120:
.LBB1410:
.LBB1411:
	.loc 5 364 10
	ldrb	r3, [sp, #11]	@ zero_extendqisi2
	cmp	r3, #3
	bne	.L129
.LBB1412:
.LBB1413:
	.loc 5 365 5
	add	r3, sp, #36
	mov	r2, r3
	vldr.32	s1, .L161
	ldr	r1, [sp, #128]
	vldr.32	s0, [sp, #132]
	ldr	r0, [sp, #12]
	bl	_ZN6tflite12_GLOBAL__N_18QuantizeEP13TfLiteContextfifRi
	mov	r3, r0
	strb	r3, [sp, #125]
	ldrb	r3, [sp, #125]	@ zero_extendqisi2
	cmp	r3, #0
	beq	.L130
	.loc 5 365 5 is_stmt 0 discriminator 1
	ldrb	r3, [sp, #125]	@ zero_extendqisi2
	b	.L155
.L130:
	add	r3, sp, #4
	str	r3, [sp, #100]
	add	r3, sp, #36
	str	r3, [sp, #96]
	strb	r7, [sp, #24]
	ldr	r3, [sp, #100]
	str	r3, [sp, #92]
	ldr	r3, [sp, #96]
	str	r3, [sp, #88]
.LBE1413:
.LBB1414:
.LBB1415:
.LBB1416:
.LBB1417:
.LBB1418:
.LBB1419:
	.loc 8 715 71 is_stmt 1
	ldr	r3, [sp, #92]
	ldr	r2, [r3]
	ldr	r3, [sp, #88]
	ldr	r3, [r3]
	.loc 8 715 73
	cmp	r2, r3
	ite	lt
	movlt	r3, #1
	movge	r3, #0
	uxtb	r3, r3
.LBE1419:
.LBE1418:
	.loc 8 2626 29
	cmp	r3, #0
	beq	.L132
	ldr	r3, [sp, #96]
	.loc 8 2626 37
	b	.L157
.L132:
	.loc 8 2626 29
	ldr	r3, [sp, #100]
	.loc 8 2626 37
	nop
.L157:
.LBE1417:
.LBE1416:
	.loc 8 2635 46
	nop
.LBE1415:
.LBE1414:
	.loc 5 367 24
	ldr	r2, [r3]
	.loc 5 367 14
	ldr	r3, [sp, #164]
	str	r2, [r3]
.LBB1420:
	.loc 5 368 5
	add	r3, sp, #36
	mov	r2, r3
	vmov.f32	s1, #6.0e+0
	ldr	r1, [sp, #128]
	vldr.32	s0, [sp, #132]
	ldr	r0, [sp, #12]
	bl	_ZN6tflite12_GLOBAL__N_18QuantizeEP13TfLiteContextfifRi
	mov	r3, r0
	strb	r3, [sp, #124]
	ldrb	r3, [sp, #124]	@ zero_extendqisi2
	cmp	r3, #0
	beq	.L136
	.loc 5 368 5 is_stmt 0 discriminator 1
	ldrb	r3, [sp, #124]	@ zero_extendqisi2
	b	.L155
.L136:
	mov	r3, sp
	str	r3, [sp, #84]
	add	r3, sp, #36
	str	r3, [sp, #80]
	strb	r6, [sp, #28]
	ldr	r3, [sp, #80]
	str	r3, [sp, #76]
	ldr	r3, [sp, #84]
	str	r3, [sp, #72]
.LBE1420:
.LBB1421:
.LBB1422:
.LBB1423:
.LBB1424:
.LBB1425:
.LBB1426:
	.loc 8 715 71 is_stmt 1
	ldr	r3, [sp, #76]
	ldr	r2, [r3]
	ldr	r3, [sp, #72]
	ldr	r3, [r3]
	.loc 8 715 73
	cmp	r2, r3
	ite	lt
	movlt	r3, #1
	movge	r3, #0
	uxtb	r3, r3
.LBE1426:
.LBE1425:
	.loc 8 2553 29
	cmp	r3, #0
	beq	.L138
	ldr	r3, [sp, #80]
	.loc 8 2553 37
	b	.L158
.L138:
	.loc 8 2553 29
	ldr	r3, [sp, #84]
	.loc 8 2553 37
	nop
.L158:
.LBE1424:
.LBE1423:
	.loc 8 2562 46
	nop
.LBE1422:
.LBE1421:
	.loc 5 370 24
	ldr	r2, [r3]
	.loc 5 370 14
	ldr	r3, [sp, #168]
	str	r2, [r3]
.LBE1412:
	b	.L128
.L129:
.LBB1427:
.LBB1428:
	.loc 5 371 10
	ldrb	r3, [sp, #11]	@ zero_extendqisi2
	cmp	r3, #2
	bne	.L142
.LBB1429:
.LBB1430:
	.loc 5 372 5
	add	r3, sp, #36
	mov	r2, r3
	vmov.f32	s1, #-1.0e+0
	ldr	r1, [sp, #128]
	vldr.32	s0, [sp, #132]
	ldr	r0, [sp, #12]
	bl	_ZN6tflite12_GLOBAL__N_18QuantizeEP13TfLiteContextfifRi
	mov	r3, r0
	strb	r3, [sp, #127]
	ldrb	r3, [sp, #127]	@ zero_extendqisi2
	cmp	r3, #0
	beq	.L143
	.loc 5 372 5 is_stmt 0 discriminator 1
	ldrb	r3, [sp, #127]	@ zero_extendqisi2
	b	.L155
.L143:
	add	r3, sp, #4
	str	r3, [sp, #68]
	add	r3, sp, #36
	str	r3, [sp, #64]
	strb	r5, [sp, #16]
	ldr	r3, [sp, #68]
	str	r3, [sp, #60]
	ldr	r3, [sp, #64]
	str	r3, [sp, #56]
.LBE1430:
.LBB1431:
.LBB1432:
.LBB1433:
.LBB1434:
.LBB1435:
.LBB1436:
	.loc 8 715 71 is_stmt 1
	ldr	r3, [sp, #60]
	ldr	r2, [r3]
	ldr	r3, [sp, #56]
	ldr	r3, [r3]
	.loc 8 715 73
	cmp	r2, r3
	ite	lt
	movlt	r3, #1
	movge	r3, #0
	uxtb	r3, r3
.LBE1436:
.LBE1435:
	.loc 8 2626 29
	cmp	r3, #0
	beq	.L145
	ldr	r3, [sp, #64]
	.loc 8 2626 37
	b	.L159
.L145:
	.loc 8 2626 29
	ldr	r3, [sp, #68]
	.loc 8 2626 37
	nop
.L159:
.LBE1434:
.LBE1433:
	.loc 8 2635 46
	nop
.LBE1432:
.LBE1431:
	.loc 5 374 24
	ldr	r2, [r3]
	.loc 5 374 14
	ldr	r3, [sp, #164]
	str	r2, [r3]
.LBB1437:
	.loc 5 375 5
	add	r3, sp, #36
	mov	r2, r3
	vmov.f32	s1, #1.0e+0
	ldr	r1, [sp, #128]
	vldr.32	s0, [sp, #132]
	ldr	r0, [sp, #12]
	bl	_ZN6tflite12_GLOBAL__N_18QuantizeEP13TfLiteContextfifRi
	mov	r3, r0
	strb	r3, [sp, #126]
	ldrb	r3, [sp, #126]	@ zero_extendqisi2
	cmp	r3, #0
	beq	.L149
	.loc 5 375 5 is_stmt 0 discriminator 1
	ldrb	r3, [sp, #126]	@ zero_extendqisi2
	b	.L155
.L149:
	mov	r3, sp
	str	r3, [sp, #52]
	add	r3, sp, #36
	str	r3, [sp, #48]
	strb	r4, [sp, #20]
	ldr	r3, [sp, #48]
	str	r3, [sp, #44]
	ldr	r3, [sp, #52]
	str	r3, [sp, #40]
.LBE1437:
.LBB1438:
.LBB1439:
.LBB1440:
.LBB1441:
.LBB1442:
.LBB1443:
	.loc 8 715 71 is_stmt 1
	ldr	r3, [sp, #44]
	ldr	r2, [r3]
	ldr	r3, [sp, #40]
	ldr	r3, [r3]
	.loc 8 715 73
	cmp	r2, r3
	ite	lt
	movlt	r3, #1
	movge	r3, #0
	uxtb	r3, r3
.LBE1443:
.LBE1442:
	.loc 8 2553 29
	cmp	r3, #0
	beq	.L151
	ldr	r3, [sp, #48]
	.loc 8 2553 37
	b	.L160
.L151:
	.loc 8 2553 29
	ldr	r3, [sp, #52]
	.loc 8 2553 37
	nop
.L160:
.LBE1441:
.LBE1440:
	.loc 8 2562 46
	nop
.LBE1439:
.LBE1438:
	.loc 5 377 24
	ldr	r2, [r3]
	.loc 5 377 14
	ldr	r3, [sp, #168]
	str	r2, [r3]
.LBE1429:
	b	.L128
.L142:
	.loc 5 379 14
	ldr	r2, [sp, #4]
	ldr	r3, [sp, #164]
	str	r2, [r3]
	.loc 5 380 14
	ldr	r2, [sp]
	ldr	r3, [sp, #168]
	str	r2, [r3]
.L128:
.LBE1428:
.LBE1427:
.LBE1411:
.LBE1410:
.LBE1401:
	.loc 5 382 10
	movs	r3, #0
.L155:
	.loc 5 383 1 discriminator 1
	mov	r0, r3
	add	sp, sp, #136
.LCFI79:
	@ sp needed
	pop	{r4, r5, r6, r7, r8, pc}
.L162:
	.align	2
.L161:
	.word	0
.LFE3257:
	.size	_ZN6tflite12_GLOBAL__N_137CalculateActivationRangeQuantizedImplEP13TfLiteContext21TfLiteFusedActivationiiP12TfLiteTensorPiS6_, .-_ZN6tflite12_GLOBAL__N_137CalculateActivationRangeQuantizedImplEP13TfLiteContext21TfLiteFusedActivationiiP12TfLiteTensorPiS6_
	.section .rodata
	.align	2
.LC18:
	.ascii	"false\000"
	.section	.text._ZN6tflite33CalculateActivationRangeQuantizedEP13TfLiteContext21TfLiteFusedActivationP12TfLiteTensorPiS5_,"ax",%progbits
	.align	1
	.global	_ZN6tflite33CalculateActivationRangeQuantizedEP13TfLiteContext21TfLiteFusedActivationP12TfLiteTensorPiS5_
	.syntax unified
	.thumb
	.thumb_func
	.type	_ZN6tflite33CalculateActivationRangeQuantizedEP13TfLiteContext21TfLiteFusedActivationP12TfLiteTensorPiS5_, %function
_ZN6tflite33CalculateActivationRangeQuantizedEP13TfLiteContext21TfLiteFusedActivationP12TfLiteTensorPiS5_:
.LFB3258:
	.loc 5 390 66
	@ args = 4, pretend = 0, frame = 24
	@ frame_needed = 0, uses_anonymous_args = 0
	push	{r4, lr}
.LCFI80:
	sub	sp, sp, #40
.LCFI81:
	str	r0, [sp, #28]
	str	r2, [sp, #20]
	str	r3, [sp, #16]
	mov	r3, r1
	strb	r3, [sp, #27]
	.loc 5 391 11
	movs	r3, #0
	str	r3, [sp, #36]
	.loc 5 392 11
	movs	r3, #0
	str	r3, [sp, #32]
	.loc 5 393 15
	ldr	r3, [sp, #20]
	ldrb	r3, [r3]	@ zero_extendqisi2
	.loc 5 393 3
	cmp	r3, #3
	bne	.L164
.LBB1444:
.LBB1445:
.LBB1446:
.LBB1447:
	.loc 7 213 85
	movs	r3, #0
.LBE1447:
.LBE1446:
	.loc 7 450 97
	nop
.LBE1445:
.LBE1444:
	.loc 5 394 10
	str	r3, [sp, #36]
.LBB1448:
.LBB1449:
.LBB1450:
.LBB1451:
	.loc 7 214 85
	movs	r3, #255
.LBE1451:
.LBE1450:
	.loc 7 451 97
	nop
.LBE1449:
.LBE1448:
	.loc 5 395 10
	str	r3, [sp, #32]
	b	.L169
.L164:
	.loc 5 396 22
	ldr	r3, [sp, #20]
	ldrb	r3, [r3]	@ zero_extendqisi2
	.loc 5 396 10
	cmp	r3, #9
	bne	.L170
.LBB1452:
.LBB1453:
.LBB1454:
.LBB1455:
	.loc 7 213 85
	mvn	r3, #127
.LBE1455:
.LBE1454:
	.loc 7 450 97
	nop
.LBE1453:
.LBE1452:
	.loc 5 397 10
	str	r3, [sp, #36]
.LBB1456:
.LBB1457:
.LBB1458:
.LBB1459:
	.loc 7 214 85
	movs	r3, #127
.LBE1459:
.LBE1458:
	.loc 7 451 97
	nop
.LBE1457:
.LBE1456:
	.loc 5 398 10
	str	r3, [sp, #32]
	b	.L169
.L170:
	.loc 5 399 22
	ldr	r3, [sp, #20]
	ldrb	r3, [r3]	@ zero_extendqisi2
	.loc 5 399 10
	cmp	r3, #7
	bne	.L175
.LBB1460:
.LBB1461:
.LBB1462:
.LBB1463:
	.loc 7 213 85
	ldr	r3, .L181
.LBE1463:
.LBE1462:
	.loc 7 450 97
	nop
.LBE1461:
.LBE1460:
	.loc 5 400 10
	str	r3, [sp, #36]
.LBB1464:
.LBB1465:
.LBB1466:
.LBB1467:
	.loc 7 214 85
	movw	r3, #32767
.LBE1467:
.LBE1466:
	.loc 7 451 97
	nop
.LBE1465:
.LBE1464:
	.loc 5 401 10
	str	r3, [sp, #32]
	b	.L169
.L175:
	.loc 5 403 5
	ldr	r3, [sp, #28]
	ldr	r4, [r3, #20]
	ldr	r3, .L181+4
	str	r3, [sp]
	movw	r3, #403
	ldr	r2, .L181+8
	ldr	r1, .L181+12
	ldr	r0, [sp, #28]
	blx	r4
.LVL14:
	movs	r3, #1
	b	.L180
.L169:
	.loc 5 406 47
	ldrb	r1, [sp, #27]	@ zero_extendqisi2
	ldr	r3, [sp, #48]
	str	r3, [sp, #8]
	ldr	r3, [sp, #16]
	str	r3, [sp, #4]
	ldr	r3, [sp, #20]
	str	r3, [sp]
	ldr	r3, [sp, #32]
	ldr	r2, [sp, #36]
	ldr	r0, [sp, #28]
	bl	_ZN6tflite12_GLOBAL__N_137CalculateActivationRangeQuantizedImplEP13TfLiteContext21TfLiteFusedActivationiiP12TfLiteTensorPiS6_
	mov	r3, r0
	.loc 5 407 72
	nop
.L180:
	.loc 5 408 1
	mov	r0, r3
	add	sp, sp, #40
.LCFI82:
	@ sp needed
	pop	{r4, pc}
.L182:
	.align	2
.L181:
	.word	-32768
	.word	.LC18
	.word	.LC2
	.word	.LC7
.LFE3258:
	.size	_ZN6tflite33CalculateActivationRangeQuantizedEP13TfLiteContext21TfLiteFusedActivationP12TfLiteTensorPiS5_, .-_ZN6tflite33CalculateActivationRangeQuantizedEP13TfLiteContext21TfLiteFusedActivationP12TfLiteTensorPiS5_
	.section	.text._ZN6tflite14HaveSameShapesEPK12TfLiteTensorS2_,"ax",%progbits
	.align	1
	.global	_ZN6tflite14HaveSameShapesEPK12TfLiteTensorS2_
	.syntax unified
	.thumb
	.thumb_func
	.type	_ZN6tflite14HaveSameShapesEPK12TfLiteTensorS2_, %function
_ZN6tflite14HaveSameShapesEPK12TfLiteTensorS2_:
.LFB3271:
	.loc 5 410 77
	@ args = 0, pretend = 0, frame = 8
	@ frame_needed = 0, uses_anonymous_args = 0
	push	{lr}
.LCFI83:
	sub	sp, sp, #12
.LCFI84:
	str	r0, [sp, #4]
	str	r1, [sp]
	.loc 5 411 38
	ldr	r3, [sp, #4]
	ldr	r2, [r3, #8]
	.loc 5 411 52
	ldr	r3, [sp]
	ldr	r3, [r3, #8]
	.loc 5 411 29
	mov	r1, r3
	mov	r0, r2
	bl	TfLiteIntArrayEqual
	mov	r3, r0
	.loc 5 411 56
	cmp	r3, #0
	ite	ne
	movne	r3, #1
	moveq	r3, #0
	uxtb	r3, r3
	.loc 5 412 1
	mov	r0, r3
	add	sp, sp, #12
.LCFI85:
	@ sp needed
	ldr	pc, [sp], #4
.LFE3271:
	.size	_ZN6tflite14HaveSameShapesEPK12TfLiteTensorS2_, .-_ZN6tflite14HaveSameShapesEPK12TfLiteTensorS2_
	.section .rodata
	.align	2
.LC19:
	.ascii	"Invalid %dD input tensor (must be a 1D tensor).\000"
	.section	.text._ZN6tflite23GetOutputShapeFromInputEP13TfLiteContextPK12TfLiteTensorPP14TfLiteIntArray,"ax",%progbits
	.align	1
	.global	_ZN6tflite23GetOutputShapeFromInputEP13TfLiteContextPK12TfLiteTensorPP14TfLiteIntArray
	.syntax unified
	.thumb
	.thumb_func
	.type	_ZN6tflite23GetOutputShapeFromInputEP13TfLiteContextPK12TfLiteTensorPP14TfLiteIntArray, %function
_ZN6tflite23GetOutputShapeFromInputEP13TfLiteContextPK12TfLiteTensorPP14TfLiteIntArray:
.LFB3272:
	.loc 5 417 69
	@ args = 0, pretend = 0, frame = 152
	@ frame_needed = 0, uses_anonymous_args = 0
	push	{r4, lr}
.LCFI86:
	sub	sp, sp, #152
.LCFI87:
	str	r0, [sp, #12]
	str	r1, [sp, #8]
	str	r2, [sp, #4]
	.loc 5 418 20
	ldr	r0, [sp, #8]
	bl	_ZN6tflite13NumDimensionsEPK12TfLiteTensor
	mov	r3, r0
	.loc 5 418 28
	cmp	r3, #1
	ite	ne
	movne	r3, #1
	moveq	r3, #0
	uxtb	r3, r3
	.loc 5 418 3
	cmp	r3, #0
	beq	.L186
	.loc 5 419 5
	ldr	r3, [sp, #12]
	ldr	r4, [r3, #20]
	ldr	r0, [sp, #8]
	bl	_ZN6tflite13NumDimensionsEPK12TfLiteTensor
	mov	r3, r0
	mov	r2, r3
	ldr	r1, .L218
	ldr	r0, [sp, #12]
	blx	r4
.LVL15:
	.loc 5 422 12
	movs	r4, #1
	b	.L215
.L186:
	.loc 5 424 42
	movs	r1, #0
	ldr	r0, [sp, #8]
	bl	_ZN6tflite15SizeOfDimensionEPK12TfLiteTensori
	str	r0, [sp, #144]
	.loc 5 426 60
	ldr	r0, [sp, #144]
	bl	TfLiteIntArrayCreate
	mov	r3, r0
	.loc 5 426 42
	ldr	r2, .L218+4
	str	r2, [sp, #32]
	str	r3, [sp, #20]
.LBB1468:
.LBB1469:
.LBB1470:
	.file 9 "C:/Program Files/SEGGER/SEGGER Embedded Studio for ARM 7.10a/source/libcxx/include/memory"
	.loc 9 2502 9
	add	r2, sp, #24
	add	r3, sp, #32
	str	r3, [sp, #140]
.LBB1471:
.LBB1472:
	.file 10 "C:/Program Files/SEGGER/SEGGER Embedded Studio for ARM 7.10a/source/libcxx/include/type_traits"
	.loc 10 2261 34
	ldr	r3, [sp, #140]
	str	r2, [sp, #136]
	str	r3, [sp, #132]
.LBE1472:
.LBE1471:
.LBB1473:
.LBB1474:
.LBB1475:
	.loc 9 2289 72
	ldr	r2, [sp, #136]
	add	r3, sp, #20
	str	r3, [sp, #128]
.LBB1476:
.LBB1477:
	.loc 10 2269 34
	ldr	r3, [sp, #128]
	str	r2, [sp, #124]
	str	r3, [sp, #120]
	ldr	r3, [sp, #120]
	str	r3, [sp, #116]
.LBE1477:
.LBE1476:
.LBB1478:
.LBB1479:
.LBB1480:
.LBB1481:
.LBB1482:
	ldr	r3, [sp, #116]
.LBE1482:
.LBE1481:
	.loc 9 2204 9
	ldr	r2, [r3]
	ldr	r3, [sp, #124]
	str	r2, [r3]
.LBE1480:
.LBE1479:
.LBE1478:
	.loc 9 2289 72
	ldr	r3, [sp, #136]
	adds	r2, r3, #4
	ldr	r3, [sp, #132]
	str	r3, [sp, #112]
.LBB1483:
.LBB1484:
	.loc 10 2269 34
	ldr	r3, [sp, #112]
	str	r2, [sp, #108]
	str	r3, [sp, #104]
	ldr	r3, [sp, #104]
	str	r3, [sp, #100]
.LBE1484:
.LBE1483:
.LBB1485:
.LBB1486:
.LBB1487:
.LBB1488:
.LBB1489:
	ldr	r3, [sp, #100]
.LBE1489:
.LBE1488:
	.loc 9 2204 9
	ldr	r2, [r3]
	ldr	r3, [sp, #108]
	str	r2, [r3]
.LBE1487:
.LBE1486:
.LBE1485:
.LBE1475:
.LBE1474:
.LBE1473:
.LBE1470:
.LBE1469:
.LBE1468:
.LBB1490:
	.loc 5 427 12
	movs	r3, #0
	str	r3, [sp, #148]
	.loc 5 427 3
	b	.L197
.L201:
	.loc 5 428 34 discriminator 3
	ldr	r3, [sp, #8]
	ldr	r2, [r3, #4]
	.loc 5 428 38 discriminator 3
	ldr	r3, [sp, #148]
	.loc 5 428 39 discriminator 3
	lsls	r3, r3, #2
	add	r3, r3, r2
.LBB1491:
.LBB1492:
	.loc 9 2587 24 discriminator 3
	add	r2, sp, #24
	str	r2, [sp, #96]
.LBB1493:
.LBB1494:
	.loc 9 2309 51 discriminator 3
	ldr	r2, [sp, #96]
	str	r2, [sp, #92]
.LBB1495:
.LBB1496:
	.loc 9 2220 52 discriminator 3
	ldr	r2, [sp, #92]
.LBE1496:
.LBE1495:
	.loc 9 2309 52 discriminator 3
	nop
.LBE1494:
.LBE1493:
	.loc 9 2587 25 discriminator 3
	ldr	r1, [r2]
.LBE1492:
.LBE1491:
	.loc 5 428 39 discriminator 3
	ldr	r2, [r3]
	.loc 5 428 20 discriminator 3
	ldr	r3, [sp, #148]
	lsls	r3, r3, #2
	add	r3, r3, r1
	str	r2, [r3, #4]
	.loc 5 427 3 discriminator 3
	ldr	r3, [sp, #148]
	adds	r3, r3, #1
	str	r3, [sp, #148]
.L197:
	.loc 5 427 21 discriminator 1
	ldr	r2, [sp, #148]
	ldr	r3, [sp, #144]
	cmp	r2, r3
	blt	.L201
.LBE1490:
.LBB1497:
.LBB1498:
	.loc 9 2608 31
	add	r3, sp, #24
	str	r3, [sp, #52]
.LBB1499:
.LBB1500:
	.loc 9 2304 45
	ldr	r3, [sp, #52]
	str	r3, [sp, #48]
.LBB1501:
.LBB1502:
	.loc 9 2218 66
	ldr	r3, [sp, #48]
.LBE1502:
.LBE1501:
	.loc 9 2304 46
	nop
.LBE1500:
.LBE1499:
	.loc 9 2608 13
	ldr	r3, [r3]
	str	r3, [sp, #44]
	.loc 9 2609 17
	add	r3, sp, #24
	str	r3, [sp, #40]
.LBB1503:
.LBB1504:
	.loc 9 2304 45
	ldr	r3, [sp, #40]
	str	r3, [sp, #36]
.LBB1505:
.LBB1506:
	.loc 9 2218 66
	ldr	r3, [sp, #36]
.LBE1506:
.LBE1505:
	.loc 9 2304 46
	nop
.LBE1504:
.LBE1503:
	.loc 9 2609 20
	movs	r2, #0
	str	r2, [r3]
	.loc 9 2610 12
	ldr	r2, [sp, #44]
.LBE1498:
.LBE1497:
	.loc 5 430 17
	ldr	r3, [sp, #4]
	str	r2, [r3]
	.loc 5 431 10
	movs	r4, #0
	add	r3, sp, #24
	str	r3, [sp, #88]
	movs	r3, #0
	str	r3, [sp, #84]
.LBB1507:
.LBB1508:
.LBB1509:
.LBB1510:
.LBB1511:
	.loc 9 2615 33
	ldr	r3, [sp, #88]
	str	r3, [sp, #80]
.LBB1512:
.LBB1513:
	.loc 9 2304 45
	ldr	r3, [sp, #80]
	str	r3, [sp, #76]
.LBB1514:
.LBB1515:
	.loc 9 2218 66
	ldr	r3, [sp, #76]
.LBE1515:
.LBE1514:
	.loc 9 2304 46
	nop
.LBE1513:
.LBE1512:
	.loc 9 2615 13
	ldr	r3, [r3]
	str	r3, [sp, #72]
	.loc 9 2616 17
	ldr	r3, [sp, #88]
	str	r3, [sp, #68]
.LBB1516:
.LBB1517:
	.loc 9 2304 45
	ldr	r3, [sp, #68]
	str	r3, [sp, #64]
.LBB1518:
.LBB1519:
	.loc 9 2218 66
	ldr	r3, [sp, #64]
.LBE1519:
.LBE1518:
	.loc 9 2304 46
	nop
.LBE1517:
.LBE1516:
	.loc 9 2616 20
	ldr	r2, [sp, #84]
	str	r2, [r3]
	.loc 9 2617 5
	ldr	r3, [sp, #72]
	cmp	r3, #0
	beq	.L217
	.loc 9 2618 20
	ldr	r3, [sp, #88]
	str	r3, [sp, #60]
.LBB1520:
.LBB1521:
	.loc 9 2314 45
	ldr	r3, [sp, #60]
	adds	r3, r3, #4
	str	r3, [sp, #56]
.LBB1522:
.LBB1523:
	.loc 9 2218 66
	ldr	r3, [sp, #56]
.LBE1523:
.LBE1522:
	.loc 9 2314 46
	nop
.LBE1521:
.LBE1520:
	.loc 9 2618 22
	ldr	r3, [r3]
	ldr	r0, [sp, #72]
	blx	r3
.LVL16:
.L217:
	.loc 9 2619 3
	nop
.LBE1511:
.LBE1510:
.LBE1509:
	.loc 9 2572 28
	nop
.L215:
.LBE1508:
.LBE1507:
	.loc 5 432 1 discriminator 1
	mov	r3, r4
	mov	r0, r3
	add	sp, sp, #152
.LCFI88:
	@ sp needed
	pop	{r4, pc}
.L219:
	.align	2
.L218:
	.word	.LC19
	.word	TfLiteIntArrayFree
.LFE3272:
	.size	_ZN6tflite23GetOutputShapeFromInputEP13TfLiteContextPK12TfLiteTensorPP14TfLiteIntArray, .-_ZN6tflite23GetOutputShapeFromInputEP13TfLiteContextPK12TfLiteTensorPP14TfLiteIntArray
	.section .rodata
	.align	2
.LC20:
	.ascii	"[\000"
	.align	2
.LC21:
	.ascii	",\000"
	.align	2
.LC22:
	.ascii	"[]\000"
	.align	2
.LC23:
	.ascii	"]\000"
	.section	.text._ZN6tflite19GetShapeDebugStringEPK14TfLiteIntArray,"ax",%progbits
	.align	1
	.global	_ZN6tflite19GetShapeDebugStringEPK14TfLiteIntArray
	.syntax unified
	.thumb
	.thumb_func
	.type	_ZN6tflite19GetShapeDebugStringEPK14TfLiteIntArray, %function
_ZN6tflite19GetShapeDebugStringEPK14TfLiteIntArray:
.LFB3273:
	.loc 5 439 68
	@ args = 0, pretend = 0, frame = 632
	@ frame_needed = 0, uses_anonymous_args = 0
	push	{r4, r5, r6, r7, lr}
.LCFI89:
	sub	sp, sp, #636
.LCFI90:
	add	r3, sp, #632
	sub	r3, r3, #628
	str	r0, [r3]
	add	r3, sp, #632
	sub	r3, r3, #632
	str	r1, [r3]
	add	r3, sp, #632
	sub	r3, r3, #628
	ldr	r3, [r3]
	str	r3, [sp, #624]
.LBB1524:
.LBB1525:
.LBB1526:
	.file 11 "C:/Program Files/SEGGER/SEGGER Embedded Studio for ARM 7.10a/source/libcxx/include/string"
	.loc 11 1724 8
	ldr	r3, [sp, #624]
	str	r3, [sp, #620]
.LBB1527:
.LBB1528:
.LBB1529:
	.loc 9 2289 72
	ldr	r3, [sp, #620]
	add	r2, sp, #80
	str	r2, [sp, #616]
	str	r3, [sp, #612]
	add	r3, sp, #632
	sub	r3, r3, #608
	strb	r7, [r3]
	add	r3, sp, #76
	str	r3, [sp, #608]
	ldr	r3, [sp, #620]
	str	r3, [sp, #604]
	add	r3, sp, #632
	sub	r3, r3, #612
	strb	r4, [r3]
	ldr	r3, [sp, #604]
	str	r3, [sp, #600]
	ldr	r3, [sp, #624]
	str	r3, [sp, #596]
.LBE1529:
.LBE1528:
.LBE1527:
.LBB1530:
.LBB1531:
	.loc 11 1519 53
	ldr	r3, [sp, #596]
	str	r3, [sp, #592]
.LBB1532:
.LBB1533:
	.loc 9 2304 45
	ldr	r3, [sp, #592]
	str	r3, [sp, #588]
.LBB1534:
.LBB1535:
	.loc 9 2218 66
	ldr	r3, [sp, #588]
.LBE1535:
.LBE1534:
	.loc 9 2304 46
	nop
.LBE1533:
.LBE1532:
	.loc 11 1519 25
	str	r3, [sp, #584]
.LBB1536:
	.loc 11 1520 27
	movs	r3, #0
	str	r3, [sp, #580]
	.loc 11 1520 13
	b	.L229
.L230:
	.loc 11 1521 26
	ldr	r3, [sp, #584]
	ldr	r2, [sp, #580]
	movs	r1, #0
	str	r1, [r3, r2, lsl #2]
	.loc 11 1520 13
	ldr	r3, [sp, #580]
	adds	r3, r3, #1
	str	r3, [sp, #580]
.L229:
	.loc 11 1520 40
	ldr	r3, [sp, #580]
	cmp	r3, #2
	bls	.L230
.LBE1536:
	.loc 11 1522 9
	nop
.LBE1531:
.LBE1530:
.LBE1526:
.LBE1525:
.LBE1524:
.LBB1537:
	.loc 5 441 12
	movs	r3, #0
	str	r3, [sp, #628]
	.loc 5 441 3
	b	.L232
.L327:
	add	r3, sp, #632
	sub	r3, r3, #628
	ldr	r3, [r3]
	str	r3, [sp, #576]
	ldr	r3, [sp, #576]
	str	r3, [sp, #572]
	ldr	r3, [sp, #572]
	str	r3, [sp, #568]
.LBB1538:
.LBB1539:
.LBB1540:
.LBB1541:
.LBB1542:
.LBB1543:
	.loc 11 1420 32
	ldr	r3, [sp, #568]
	str	r3, [sp, #564]
.LBB1544:
.LBB1545:
	.loc 9 2309 51
	ldr	r3, [sp, #564]
	str	r3, [sp, #560]
.LBB1546:
.LBB1547:
	.loc 9 2220 52
	ldr	r3, [sp, #560]
.LBE1547:
.LBE1546:
	.loc 9 2309 52
	nop
.LBE1545:
.LBE1544:
	.loc 11 1420 39
	ldrb	r3, [r3]	@ zero_extendqisi2
	.loc 11 1420 47
	and	r3, r3, #1
	.loc 11 1420 61
	cmp	r3, #0
	ite	ne
	movne	r3, #1
	moveq	r3, #0
	uxtb	r3, r3
.LBE1543:
.LBE1542:
	.loc 11 947 29
	cmp	r3, #0
	beq	.L236
	ldr	r3, [sp, #572]
	str	r3, [sp, #556]
.LBB1548:
.LBB1549:
	.loc 11 1482 27
	ldr	r3, [sp, #556]
	str	r3, [sp, #552]
.LBB1550:
.LBB1551:
	.loc 9 2309 51
	ldr	r3, [sp, #552]
	str	r3, [sp, #548]
.LBB1552:
.LBB1553:
	.loc 9 2220 52
	ldr	r3, [sp, #548]
.LBE1553:
.LBE1552:
	.loc 9 2309 52
	nop
.LBE1551:
.LBE1550:
	.loc 11 1482 34
	ldr	r3, [r3, #4]
	b	.L240
.L236:
	ldr	r3, [sp, #572]
	str	r3, [sp, #544]
.LBE1549:
.LBE1548:
.LBB1554:
.LBB1555:
	.loc 11 1472 27
	ldr	r3, [sp, #544]
	str	r3, [sp, #540]
.LBB1556:
.LBB1557:
	.loc 9 2309 51
	ldr	r3, [sp, #540]
	str	r3, [sp, #536]
.LBB1558:
.LBB1559:
	.loc 9 2220 52
	ldr	r3, [sp, #536]
.LBE1559:
.LBE1558:
	.loc 9 2309 52
	nop
.LBE1557:
.LBE1556:
	.loc 11 1472 34
	ldrb	r3, [r3]	@ zero_extendqisi2
	.loc 11 1472 42
	lsrs	r3, r3, #1
	uxtb	r3, r3
.L240:
.LBE1555:
.LBE1554:
	.loc 11 947 68
	nop
.LBE1541:
.LBE1540:
	.loc 11 967 52
	cmp	r3, #0
	ite	eq
	moveq	r3, #1
	movne	r3, #0
	uxtb	r3, r3
.LBE1539:
.LBE1538:
	.loc 5 442 5
	cmp	r3, #0
	beq	.L246
	.loc 5 443 47
	add	r3, sp, #632
	sub	r3, r3, #632
	ldr	r2, [r3]
	ldr	r3, [sp, #628]
	lsls	r3, r3, #2
	add	r3, r3, r2
	ldr	r2, [r3, #4]
	.loc 5 443 33
	add	r3, sp, #632
	sub	r3, r3, #592
	mov	r1, r2
	mov	r0, r3
	bl	_ZNSt3__19to_stringEi
	add	r3, sp, #632
	sub	r3, r3, #304
	ldr	r2, .L346
	str	r2, [r3]
	add	r4, sp, #28
.LBB1560:
.LBB1561:
	.loc 11 4140 23
	add	r3, sp, #632
	sub	r3, r3, #304
	add	r0, sp, #40
	ldr	r2, [r3]
	movs	r1, #0
	bl	_ZNSt3__112basic_stringIcNS_11char_traitsIcEENS_9allocatorIcEEE6insertEjPKc
	mov	r2, r0
	add	r3, sp, #632
	sub	r3, r3, #308
	str	r2, [r3]
.LBB1562:
.LBB1563:
	.loc 10 2261 34
	add	r3, sp, #632
	sub	r3, r3, #308
	ldr	r2, [r3]
	add	r3, sp, #632
	sub	r3, r3, #312
	str	r4, [r3]
	add	r3, sp, #632
	sub	r3, r3, #316
	str	r2, [r3]
.LBE1563:
.LBE1562:
.LBB1564:
.LBB1565:
.LBB1566:
	.loc 11 1870 30
	add	r3, sp, #632
	sub	r3, r3, #316
	ldr	r2, [r3]
	add	r3, sp, #632
	sub	r3, r3, #320
	str	r2, [r3]
.LBB1567:
.LBB1568:
	.loc 10 2261 34
	add	r3, sp, #632
	sub	r3, r3, #320
	ldr	r2, [r3]
.LBE1568:
.LBE1567:
	.loc 11 1870 7
	add	r3, sp, #632
	sub	r3, r3, #312
	ldr	r3, [r3]
	ldm	r2, {r0, r1, r2}
	stm	r3, {r0, r1, r2}
	add	r3, sp, #632
	sub	r3, r3, #324
	add	r2, sp, #632
	sub	r2, r2, #316
	ldr	r2, [r2]
	str	r2, [r3]
.LBB1569:
.LBB1570:
	.loc 11 1519 53
	add	r3, sp, #632
	sub	r3, r3, #324
	ldr	r2, [r3]
	add	r3, sp, #632
	sub	r3, r3, #328
	str	r2, [r3]
.LBB1571:
.LBB1572:
	.loc 9 2304 45
	add	r3, sp, #632
	sub	r3, r3, #328
	ldr	r2, [r3]
	add	r3, sp, #632
	sub	r3, r3, #332
	str	r2, [r3]
.LBB1573:
.LBB1574:
	.loc 9 2218 66
	add	r3, sp, #632
	sub	r3, r3, #332
	ldr	r2, [r3]
.LBE1574:
.LBE1573:
	.loc 9 2304 46
	nop
.LBE1572:
.LBE1571:
	.loc 11 1519 25
	add	r3, sp, #632
	sub	r3, r3, #336
	str	r2, [r3]
.LBB1575:
	.loc 11 1520 27
	add	r3, sp, #632
	sub	r3, r3, #340
	movs	r2, #0
	str	r2, [r3]
	.loc 11 1520 13
	b	.L251
.L347:
	.align	2
.L346:
	.word	.LC20
.L252:
	.loc 11 1521 26
	add	r3, sp, #632
	sub	r3, r3, #336
	ldr	r3, [r3]
	add	r2, sp, #632
	sub	r2, r2, #340
	ldr	r2, [r2]
	movs	r1, #0
	str	r1, [r3, r2, lsl #2]
	.loc 11 1520 13
	add	r3, sp, #632
	sub	r3, r3, #340
	add	r2, sp, #632
	sub	r2, r2, #340
	ldr	r2, [r2]
	adds	r2, r2, #1
	str	r2, [r3]
.L251:
	.loc 11 1520 40
	add	r3, sp, #632
	sub	r3, r3, #340
	ldr	r3, [r3]
	cmp	r3, #2
	bls	.L252
.LBE1575:
	.loc 11 1522 9
	nop
.LBE1570:
.LBE1569:
.LBE1566:
.LBE1565:
.LBE1564:
	.loc 11 4140 46
	nop
	add	r3, sp, #632
	sub	r3, r3, #628
	ldr	r3, [r3]
	str	r3, [sp, #532]
	ldr	r3, [sp, #532]
	str	r3, [sp, #528]
	add	r3, sp, #28
	str	r3, [sp, #524]
	add	r3, sp, #632
	sub	r3, r3, #616
	strb	r5, [r3]
	ldr	r3, [sp, #528]
	str	r3, [sp, #520]
.LBE1561:
.LBE1560:
.LBB1576:
.LBB1577:
.LBB1578:
.LBB1579:
.LBB1580:
.LBB1581:
	.loc 11 1420 32
	ldr	r3, [sp, #520]
	str	r3, [sp, #516]
.LBB1582:
.LBB1583:
	.loc 9 2309 51
	ldr	r3, [sp, #516]
	str	r3, [sp, #512]
.LBB1584:
.LBB1585:
	.loc 9 2220 52
	ldr	r3, [sp, #512]
.LBE1585:
.LBE1584:
	.loc 9 2309 52
	nop
.LBE1583:
.LBE1582:
	.loc 11 1420 39
	ldrb	r3, [r3]	@ zero_extendqisi2
	.loc 11 1420 47
	and	r3, r3, #1
	.loc 11 1420 61
	cmp	r3, #0
	ite	ne
	movne	r3, #1
	moveq	r3, #0
	uxtb	r3, r3
.LBE1581:
.LBE1580:
	.loc 11 2298 3
	cmp	r3, #0
	beq	.L258
	ldr	r3, [sp, #528]
	str	r3, [sp, #508]
.LBB1586:
.LBB1587:
	.loc 11 1434 28
	ldr	r3, [sp, #508]
	str	r3, [sp, #504]
	ldr	r3, [sp, #504]
	str	r3, [sp, #500]
.LBB1588:
.LBB1589:
.LBB1590:
.LBB1591:
	.loc 9 2256 67
	ldr	r1, [sp, #500]
.LBE1591:
.LBE1590:
	.loc 9 2314 46
	nop
.LBE1589:
.LBE1588:
	.loc 11 1434 29
	nop
	ldr	r3, [sp, #528]
	str	r3, [sp, #496]
.LBE1587:
.LBE1586:
.LBB1592:
.LBB1593:
	.loc 11 1499 27
	ldr	r3, [sp, #496]
	str	r3, [sp, #492]
.LBB1594:
.LBB1595:
	.loc 9 2304 45
	ldr	r3, [sp, #492]
	str	r3, [sp, #488]
.LBB1596:
.LBB1597:
	.loc 9 2218 66
	ldr	r3, [sp, #488]
.LBE1597:
.LBE1596:
	.loc 9 2304 46
	nop
.LBE1595:
.LBE1594:
	.loc 11 1499 34
	ldr	r2, [r3, #8]
	ldr	r3, [sp, #528]
	str	r3, [sp, #484]
.LBE1593:
.LBE1592:
.LBB1598:
.LBB1599:
	.loc 11 1492 27
	ldr	r3, [sp, #484]
	str	r3, [sp, #480]
.LBB1600:
.LBB1601:
	.loc 9 2309 51
	ldr	r3, [sp, #480]
	str	r3, [sp, #476]
.LBB1602:
.LBB1603:
	.loc 9 2220 52
	ldr	r3, [sp, #476]
.LBE1603:
.LBE1602:
	.loc 9 2309 52
	nop
.LBE1601:
.LBE1600:
	.loc 11 1492 34
	ldr	r3, [r3]
	.loc 11 1492 65
	bic	r3, r3, #1
	str	r1, [sp, #472]
	str	r2, [sp, #468]
	str	r3, [sp, #464]
	ldr	r3, [sp, #472]
	str	r3, [sp, #460]
	ldr	r3, [sp, #468]
	str	r3, [sp, #456]
	ldr	r3, [sp, #464]
	str	r3, [sp, #452]
	ldr	r3, [sp, #456]
	str	r3, [sp, #448]
	ldr	r3, [sp, #452]
	str	r3, [sp, #444]
	movs	r3, #1
	str	r3, [sp, #440]
	ldr	r3, [sp, #448]
	str	r3, [sp, #436]
	ldr	r3, [sp, #444]
	str	r3, [sp, #432]
	ldr	r3, [sp, #440]
	str	r3, [sp, #428]
.LBE1599:
.LBE1598:
.LBB1604:
.LBB1605:
.LBB1606:
.LBB1607:
.LBB1608:
.LBB1609:
.LBB1610:
.LBB1611:
	.loc 1 262 39
	ldr	r1, [sp, #432]
	ldr	r0, [sp, #436]
	bl	_ZNSt3__117_DeallocateCaller27__do_deallocate_handle_sizeEPvj
	.loc 1 262 53
	nop
.LBE1611:
.LBE1610:
	.loc 1 341 1
	nop
.LBE1609:
.LBE1608:
	.loc 9 1867 90
	nop
.LBE1607:
.LBE1606:
	.loc 9 1589 35
	nop
.L258:
	ldr	r3, [sp, #528]
	str	r3, [sp, #424]
	ldr	r3, [sp, #524]
	str	r3, [sp, #420]
	ldr	r3, [sp, #424]
	str	r3, [sp, #416]
	ldr	r3, [sp, #420]
	str	r3, [sp, #412]
	add	r3, sp, #632
	sub	r3, r3, #620
	strb	r6, [r3]
	ldr	r3, [sp, #412]
	str	r3, [sp, #408]
.LBE1605:
.LBE1604:
.LBB1612:
.LBB1613:
.LBB1614:
.LBB1615:
.LBB1616:
.LBB1617:
	.loc 11 1434 28
	ldr	r3, [sp, #408]
	str	r3, [sp, #404]
	ldr	r3, [sp, #404]
	str	r3, [sp, #400]
.LBB1618:
.LBB1619:
.LBB1620:
.LBB1621:
	.loc 9 2256 67
	ldr	r3, [sp, #400]
.LBE1621:
.LBE1620:
	.loc 9 2314 46
	nop
.LBE1619:
.LBE1618:
	.loc 11 1434 29
	nop
	str	r3, [sp, #396]
	ldr	r3, [sp, #416]
	str	r3, [sp, #392]
.LBE1617:
.LBE1616:
.LBB1622:
.LBB1623:
	.loc 11 1434 28
	ldr	r3, [sp, #392]
	str	r3, [sp, #388]
	ldr	r3, [sp, #388]
	str	r3, [sp, #384]
.LBB1624:
.LBB1625:
	.loc 9 2314 46
	nop
.LBE1625:
.LBE1624:
	.loc 11 1434 29
	nop
.LBE1623:
.LBE1622:
	.loc 11 1634 9
	nop
.LBE1615:
.LBE1614:
	.loc 11 1627 89
	nop
.LBE1613:
.LBE1612:
	.loc 11 2309 34
	ldr	r3, [sp, #524]
	str	r3, [sp, #380]
.LBB1626:
.LBB1627:
	.loc 9 2304 45
	ldr	r2, [sp, #380]
	add	r3, sp, #632
	sub	r3, r3, #256
	str	r2, [r3]
.LBB1628:
.LBB1629:
	.loc 9 2218 66
	add	r3, sp, #632
	sub	r3, r3, #256
	ldr	r1, [r3]
.LBE1629:
.LBE1628:
	.loc 9 2304 46
	nop
.LBE1627:
.LBE1626:
	.loc 11 2309 13
	ldr	r2, [sp, #528]
	add	r3, sp, #632
	sub	r3, r3, #260
	str	r2, [r3]
.LBB1630:
.LBB1631:
	.loc 9 2304 45
	add	r3, sp, #632
	sub	r3, r3, #260
	ldr	r2, [r3]
	add	r3, sp, #632
	sub	r3, r3, #264
	str	r2, [r3]
.LBB1632:
.LBB1633:
	.loc 9 2218 66
	add	r3, sp, #632
	sub	r3, r3, #264
	ldr	r3, [r3]
.LBE1633:
.LBE1632:
	.loc 9 2304 46
	nop
.LBE1631:
.LBE1630:
	.loc 11 2309 3
	mov	r2, r1
	ldm	r2, {r0, r1, r2}
	stm	r3, {r0, r1, r2}
	add	r3, sp, #632
	sub	r3, r3, #268
	ldr	r2, [sp, #524]
	str	r2, [r3]
	add	r3, sp, #632
	sub	r3, r3, #272
	movs	r2, #0
	str	r2, [r3]
.LBB1634:
.LBB1635:
	.loc 11 1464 57
	add	r3, sp, #632
	sub	r3, r3, #272
	ldr	r3, [r3]
	uxtb	r2, r3
	.loc 11 1464 20
	add	r3, sp, #632
	sub	r3, r3, #268
	ldr	r1, [r3]
	add	r3, sp, #632
	sub	r3, r3, #276
	str	r1, [r3]
.LBB1636:
.LBB1637:
	.loc 9 2304 45
	add	r3, sp, #632
	sub	r3, r3, #276
	ldr	r1, [r3]
	add	r3, sp, #632
	sub	r3, r3, #280
	str	r1, [r3]
.LBB1638:
.LBB1639:
	.loc 9 2218 66
	add	r3, sp, #632
	sub	r3, r3, #280
	ldr	r3, [r3]
.LBE1639:
.LBE1638:
	.loc 9 2304 46
	nop
.LBE1637:
.LBE1636:
	.loc 11 1464 57
	lsls	r2, r2, #1
	uxtb	r2, r2
	.loc 11 1464 35
	strb	r2, [r3]
	.loc 11 1464 63
	nop
	add	r3, sp, #632
	sub	r3, r3, #284
	ldr	r2, [sp, #524]
	str	r2, [r3]
.LBE1635:
.LBE1634:
.LBB1640:
.LBB1641:
	.loc 11 1505 63
	add	r3, sp, #632
	sub	r3, r3, #284
	ldr	r2, [r3]
	add	r3, sp, #632
	sub	r3, r3, #288
	str	r2, [r3]
.LBB1642:
.LBB1643:
	.loc 9 2304 45
	add	r3, sp, #632
	sub	r3, r3, #288
	ldr	r2, [r3]
	add	r3, sp, #632
	sub	r3, r3, #292
	str	r2, [r3]
.LBB1644:
.LBB1645:
	.loc 9 2218 66
	add	r3, sp, #632
	sub	r3, r3, #292
	ldr	r3, [r3]
.LBE1645:
.LBE1644:
	.loc 9 2304 46
	nop
.LBE1643:
.LBE1642:
	.loc 11 1505 77
	adds	r2, r3, #1
	add	r3, sp, #632
	sub	r3, r3, #296
	str	r2, [r3]
	add	r3, sp, #632
	sub	r3, r3, #300
	add	r2, sp, #632
	sub	r2, r2, #296
	ldr	r2, [r2]
	str	r2, [r3]
.LBB1646:
.LBB1647:
.LBB1648:
.LBB1649:
	.loc 10 593 35
	add	r3, sp, #632
	sub	r3, r3, #300
	ldr	r2, [r3]
.LBE1649:
.LBE1648:
	.loc 9 988 37
	nop
.LBE1647:
.LBE1646:
	.loc 11 1505 80
	nop
.LBE1641:
.LBE1640:
	.loc 11 2311 22
	add	r3, sp, #632
	subw	r3, r3, #549
	movs	r1, #0
	strb	r1, [r3]
	add	r3, sp, #83
	mov	r1, r3
	mov	r0, r2
	bl	_ZNSt3__111char_traitsIcE6assignERcRKc
	.loc 11 2312 1
	nop
.LBE1579:
.LBE1578:
.LBE1577:
.LBE1576:
	.loc 5 443 17
	add	r3, sp, #28
	mov	r0, r3
	bl	_ZNSt3__112basic_stringIcNS_11char_traitsIcEENS_9allocatorIcEEED1Ev
	.loc 5 443 33
	add	r3, sp, #40
	mov	r0, r3
	bl	_ZNSt3__112basic_stringIcNS_11char_traitsIcEENS_9allocatorIcEEED1Ev
	b	.L288
.L246:
	.loc 5 447 48
	add	r3, sp, #632
	sub	r3, r3, #632
	ldr	r2, [r3]
	ldr	r3, [sp, #628]
	lsls	r3, r3, #2
	add	r3, r3, r2
	ldr	r2, [r3, #4]
	.loc 5 447 34
	add	r3, sp, #632
	sub	r3, r3, #568
	mov	r1, r2
	mov	r0, r3
	bl	_ZNSt3__19to_stringEi
	add	r3, sp, #632
	sub	r3, r3, #452
	ldr	r2, .L348
	str	r2, [r3]
	add	r4, sp, #52
.LBB1650:
.LBB1651:
	.loc 11 4140 23
	add	r3, sp, #632
	sub	r3, r3, #452
	add	r0, sp, #64
	ldr	r2, [r3]
	movs	r1, #0
	bl	_ZNSt3__112basic_stringIcNS_11char_traitsIcEENS_9allocatorIcEEE6insertEjPKc
	mov	r2, r0
	add	r3, sp, #632
	sub	r3, r3, #456
	str	r2, [r3]
.LBB1652:
.LBB1653:
	.loc 10 2261 34
	add	r3, sp, #632
	sub	r3, r3, #456
	ldr	r2, [r3]
	add	r3, sp, #632
	sub	r3, r3, #460
	str	r4, [r3]
	add	r3, sp, #632
	sub	r3, r3, #464
	str	r2, [r3]
.LBE1653:
.LBE1652:
.LBB1654:
.LBB1655:
.LBB1656:
	.loc 11 1870 30
	add	r3, sp, #632
	sub	r3, r3, #464
	ldr	r2, [r3]
	add	r3, sp, #632
	sub	r3, r3, #468
	str	r2, [r3]
.LBB1657:
.LBB1658:
	.loc 10 2261 34
	add	r3, sp, #632
	sub	r3, r3, #468
	ldr	r2, [r3]
.LBE1658:
.LBE1657:
	.loc 11 1870 7
	add	r3, sp, #632
	sub	r3, r3, #460
	ldr	r3, [r3]
	ldm	r2, {r0, r1, r2}
	stm	r3, {r0, r1, r2}
	add	r3, sp, #632
	sub	r3, r3, #472
	add	r2, sp, #632
	sub	r2, r2, #464
	ldr	r2, [r2]
	str	r2, [r3]
.LBB1659:
.LBB1660:
	.loc 11 1519 53
	add	r3, sp, #632
	sub	r3, r3, #472
	ldr	r2, [r3]
	add	r3, sp, #632
	sub	r3, r3, #476
	str	r2, [r3]
.LBB1661:
.LBB1662:
	.loc 9 2304 45
	add	r3, sp, #632
	sub	r3, r3, #476
	ldr	r2, [r3]
	add	r3, sp, #632
	sub	r3, r3, #480
	str	r2, [r3]
.LBB1663:
.LBB1664:
	.loc 9 2218 66
	add	r3, sp, #632
	sub	r3, r3, #480
	ldr	r2, [r3]
.LBE1664:
.LBE1663:
	.loc 9 2304 46
	nop
.LBE1662:
.LBE1661:
	.loc 11 1519 25
	add	r3, sp, #632
	sub	r3, r3, #484
	str	r2, [r3]
.LBB1665:
	.loc 11 1520 27
	add	r3, sp, #632
	sub	r3, r3, #488
	movs	r2, #0
	str	r2, [r3]
	.loc 11 1520 13
	b	.L293
.L294:
	.loc 11 1521 26
	add	r3, sp, #632
	sub	r3, r3, #484
	ldr	r3, [r3]
	add	r2, sp, #632
	sub	r2, r2, #488
	ldr	r2, [r2]
	movs	r1, #0
	str	r1, [r3, r2, lsl #2]
	.loc 11 1520 13
	add	r3, sp, #632
	sub	r3, r3, #488
	add	r2, sp, #632
	sub	r2, r2, #488
	ldr	r2, [r2]
	adds	r2, r2, #1
	str	r2, [r3]
.L293:
	.loc 11 1520 40
	add	r3, sp, #632
	sub	r3, r3, #488
	ldr	r3, [r3]
	cmp	r3, #2
	bls	.L294
.LBE1665:
	.loc 11 1522 9
	nop
.LBE1660:
.LBE1659:
.LBE1656:
.LBE1655:
.LBE1654:
	.loc 11 4140 46
	nop
	add	r3, sp, #632
	sub	r3, r3, #344
	add	r2, sp, #632
	sub	r2, r2, #628
	ldr	r2, [r2]
	str	r2, [r3]
	add	r3, sp, #632
	sub	r3, r3, #348
	add	r2, sp, #632
	sub	r2, r2, #344
	ldr	r2, [r2]
	str	r2, [r3]
	add	r3, sp, #632
	sub	r3, r3, #352
	add	r2, sp, #52
	str	r2, [r3]
	add	r3, sp, #632
	sub	r3, r3, #356
	add	r2, sp, #632
	sub	r2, r2, #352
	ldr	r2, [r2]
	str	r2, [r3]
	add	r3, sp, #632
	sub	r3, r3, #360
	add	r2, sp, #632
	sub	r2, r2, #356
	ldr	r2, [r2]
	str	r2, [r3]
	add	r3, sp, #632
	sub	r3, r3, #364
	add	r2, sp, #632
	sub	r2, r2, #360
	ldr	r2, [r2]
	str	r2, [r3]
.LBE1651:
.LBE1650:
.LBB1666:
.LBB1667:
.LBB1668:
.LBB1669:
.LBB1670:
.LBB1671:
.LBB1672:
.LBB1673:
.LBB1674:
.LBB1675:
	.loc 11 1420 32
	add	r3, sp, #632
	sub	r3, r3, #364
	ldr	r2, [r3]
	add	r3, sp, #632
	sub	r3, r3, #368
	str	r2, [r3]
.LBB1676:
.LBB1677:
	.loc 9 2309 51
	add	r3, sp, #632
	sub	r3, r3, #368
	ldr	r2, [r3]
	add	r3, sp, #632
	sub	r3, r3, #372
	str	r2, [r3]
.LBB1678:
.LBB1679:
	.loc 9 2220 52
	add	r3, sp, #632
	sub	r3, r3, #372
	ldr	r3, [r3]
.LBE1679:
.LBE1678:
	.loc 9 2309 52
	nop
.LBE1677:
.LBE1676:
	.loc 11 1420 39
	ldrb	r3, [r3]	@ zero_extendqisi2
	.loc 11 1420 47
	and	r3, r3, #1
	.loc 11 1420 61
	cmp	r3, #0
	ite	ne
	movne	r3, #1
	moveq	r3, #0
	uxtb	r3, r3
.LBE1675:
.LBE1674:
	.loc 11 1514 29
	cmp	r3, #0
	beq	.L300
	add	r3, sp, #632
	sub	r3, r3, #376
	add	r2, sp, #632
	sub	r2, r2, #360
	ldr	r2, [r2]
	str	r2, [r3]
.LBB1680:
.LBB1681:
	.loc 11 1502 27
	add	r3, sp, #632
	sub	r3, r3, #376
	ldr	r2, [r3]
	add	r3, sp, #632
	sub	r3, r3, #380
	str	r2, [r3]
.LBB1682:
.LBB1683:
	.loc 9 2309 51
	add	r3, sp, #632
	sub	r3, r3, #380
	ldr	r2, [r3]
	add	r3, sp, #632
	sub	r3, r3, #384
	str	r2, [r3]
.LBB1684:
.LBB1685:
	.loc 9 2220 52
	add	r3, sp, #632
	sub	r3, r3, #384
	ldr	r3, [r3]
.LBE1685:
.LBE1684:
	.loc 9 2309 52
	nop
.LBE1683:
.LBE1682:
	.loc 11 1502 34
	ldr	r3, [r3, #8]
	b	.L304
.L349:
	.align	2
.L348:
	.word	.LC21
.L300:
	add	r3, sp, #632
	sub	r3, r3, #388
	add	r2, sp, #632
	sub	r2, r2, #360
	ldr	r2, [r2]
	str	r2, [r3]
.LBE1681:
.LBE1680:
.LBB1686:
.LBB1687:
	.loc 11 1508 69
	add	r3, sp, #632
	sub	r3, r3, #388
	ldr	r2, [r3]
	add	r3, sp, #632
	sub	r3, r3, #392
	str	r2, [r3]
.LBB1688:
.LBB1689:
	.loc 9 2309 51
	add	r3, sp, #632
	sub	r3, r3, #392
	ldr	r2, [r3]
	add	r3, sp, #632
	sub	r3, r3, #396
	str	r2, [r3]
.LBB1690:
.LBB1691:
	.loc 9 2220 52
	add	r3, sp, #632
	sub	r3, r3, #396
	ldr	r3, [r3]
.LBE1691:
.LBE1690:
	.loc 9 2309 52
	nop
.LBE1689:
.LBE1688:
	.loc 11 1508 83
	adds	r2, r3, #1
	add	r3, sp, #632
	sub	r3, r3, #400
	str	r2, [r3]
	add	r3, sp, #632
	sub	r3, r3, #404
	add	r2, sp, #632
	sub	r2, r2, #400
	ldr	r2, [r2]
	str	r2, [r3]
.LBB1692:
.LBB1693:
.LBB1694:
.LBB1695:
	.loc 10 593 35
	add	r3, sp, #632
	sub	r3, r3, #404
	ldr	r3, [r3]
.LBE1695:
.LBE1694:
	.loc 9 988 37
	nop
.LBE1693:
.LBE1692:
	.loc 11 1508 86
	nop
.L304:
.LBE1687:
.LBE1686:
	.loc 11 1514 74
	nop
	add	r2, sp, #632
	sub	r2, r2, #408
	str	r3, [r2]
.LBE1673:
.LBE1672:
.LBB1696:
.LBB1697:
	.loc 9 1124 12
	add	r3, sp, #632
	sub	r3, r3, #408
	ldr	r1, [r3]
.LBE1697:
.LBE1696:
	.loc 11 1242 90
	nop
	add	r3, sp, #632
	sub	r3, r3, #412
	add	r2, sp, #632
	sub	r2, r2, #352
	ldr	r2, [r2]
	str	r2, [r3]
	add	r3, sp, #632
	sub	r3, r3, #416
	add	r2, sp, #632
	sub	r2, r2, #412
	ldr	r2, [r2]
	str	r2, [r3]
.LBE1671:
.LBE1670:
.LBB1698:
.LBB1699:
.LBB1700:
.LBB1701:
	.loc 11 1420 32
	add	r3, sp, #632
	sub	r3, r3, #416
	ldr	r2, [r3]
	add	r3, sp, #632
	sub	r3, r3, #420
	str	r2, [r3]
.LBB1702:
.LBB1703:
	.loc 9 2309 51
	add	r3, sp, #632
	sub	r3, r3, #420
	ldr	r2, [r3]
	add	r3, sp, #632
	sub	r3, r3, #424
	str	r2, [r3]
.LBB1704:
.LBB1705:
	.loc 9 2220 52
	add	r3, sp, #632
	sub	r3, r3, #424
	ldr	r3, [r3]
.LBE1705:
.LBE1704:
	.loc 9 2309 52
	nop
.LBE1703:
.LBE1702:
	.loc 11 1420 39
	ldrb	r3, [r3]	@ zero_extendqisi2
	.loc 11 1420 47
	and	r3, r3, #1
	.loc 11 1420 61
	cmp	r3, #0
	ite	ne
	movne	r3, #1
	moveq	r3, #0
	uxtb	r3, r3
.LBE1701:
.LBE1700:
	.loc 11 947 29
	cmp	r3, #0
	beq	.L316
	add	r3, sp, #632
	sub	r3, r3, #428
	add	r2, sp, #632
	sub	r2, r2, #412
	ldr	r2, [r2]
	str	r2, [r3]
.LBB1706:
.LBB1707:
	.loc 11 1482 27
	add	r3, sp, #632
	sub	r3, r3, #428
	ldr	r2, [r3]
	add	r3, sp, #632
	sub	r3, r3, #432
	str	r2, [r3]
.LBB1708:
.LBB1709:
	.loc 9 2309 51
	add	r3, sp, #632
	sub	r3, r3, #432
	ldr	r2, [r3]
	add	r3, sp, #632
	sub	r3, r3, #436
	str	r2, [r3]
.LBB1710:
.LBB1711:
	.loc 9 2220 52
	add	r3, sp, #632
	sub	r3, r3, #436
	ldr	r3, [r3]
.LBE1711:
.LBE1710:
	.loc 9 2309 52
	nop
.LBE1709:
.LBE1708:
	.loc 11 1482 34
	ldr	r2, [r3, #4]
	b	.L320
.L316:
	add	r3, sp, #632
	sub	r3, r3, #440
	add	r2, sp, #632
	sub	r2, r2, #412
	ldr	r2, [r2]
	str	r2, [r3]
.LBE1707:
.LBE1706:
.LBB1712:
.LBB1713:
	.loc 11 1472 27
	add	r3, sp, #632
	sub	r3, r3, #440
	ldr	r2, [r3]
	add	r3, sp, #632
	sub	r3, r3, #444
	str	r2, [r3]
.LBB1714:
.LBB1715:
	.loc 9 2309 51
	add	r3, sp, #632
	sub	r3, r3, #444
	ldr	r2, [r3]
	add	r3, sp, #632
	sub	r3, r3, #448
	str	r2, [r3]
.LBB1716:
.LBB1717:
	.loc 9 2220 52
	add	r3, sp, #632
	sub	r3, r3, #448
	ldr	r3, [r3]
.LBE1717:
.LBE1716:
	.loc 9 2309 52
	nop
.LBE1715:
.LBE1714:
	.loc 11 1472 34
	ldrb	r3, [r3]	@ zero_extendqisi2
	.loc 11 1472 42
	lsrs	r3, r3, #1
	uxtb	r3, r3
	.loc 11 1472 45
	mov	r2, r3
.L320:
.LBE1713:
.LBE1712:
	.loc 11 947 68
	nop
.LBE1699:
.LBE1698:
	.loc 11 2553 18
	add	r3, sp, #632
	sub	r3, r3, #348
	ldr	r0, [r3]
	bl	_ZNSt3__112basic_stringIcNS_11char_traitsIcEENS_9allocatorIcEEE6appendEPKcj
	.loc 11 2553 45
	nop
.LBE1669:
.LBE1668:
	.loc 11 975 103
	nop
.LBE1667:
.LBE1666:
	.loc 5 447 18
	add	r3, sp, #52
	mov	r0, r3
	bl	_ZNSt3__112basic_stringIcNS_11char_traitsIcEENS_9allocatorIcEEED1Ev
	.loc 5 447 34
	add	r3, sp, #64
	mov	r0, r3
	bl	_ZNSt3__112basic_stringIcNS_11char_traitsIcEENS_9allocatorIcEEED1Ev
.L288:
	.loc 5 441 3 discriminator 2
	ldr	r3, [sp, #628]
	adds	r3, r3, #1
	str	r3, [sp, #628]
.L232:
	.loc 5 441 30 discriminator 1
	add	r3, sp, #632
	sub	r3, r3, #632
	ldr	r3, [r3]
	ldr	r3, [r3]
	.loc 5 441 21 discriminator 1
	ldr	r2, [sp, #628]
	cmp	r2, r3
	blt	.L327
	add	r3, sp, #632
	sub	r3, r3, #492
	add	r2, sp, #632
	sub	r2, r2, #628
	ldr	r2, [r2]
	str	r2, [r3]
	add	r3, sp, #632
	sub	r3, r3, #496
	add	r2, sp, #632
	sub	r2, r2, #492
	ldr	r2, [r2]
	str	r2, [r3]
	add	r3, sp, #632
	sub	r3, r3, #500
	add	r2, sp, #632
	sub	r2, r2, #496
	ldr	r2, [r2]
	str	r2, [r3]
.LBE1537:
.LBB1718:
.LBB1719:
.LBB1720:
.LBB1721:
.LBB1722:
.LBB1723:
	.loc 11 1420 32
	add	r3, sp, #632
	sub	r3, r3, #500
	ldr	r2, [r3]
	add	r3, sp, #632
	sub	r3, r3, #504
	str	r2, [r3]
.LBB1724:
.LBB1725:
	.loc 9 2309 51
	add	r3, sp, #632
	sub	r3, r3, #504
	ldr	r2, [r3]
	add	r3, sp, #632
	sub	r3, r3, #508
	str	r2, [r3]
.LBB1726:
.LBB1727:
	.loc 9 2220 52
	add	r3, sp, #632
	sub	r3, r3, #508
	ldr	r3, [r3]
.LBE1727:
.LBE1726:
	.loc 9 2309 52
	nop
.LBE1725:
.LBE1724:
	.loc 11 1420 39
	ldrb	r3, [r3]	@ zero_extendqisi2
	.loc 11 1420 47
	and	r3, r3, #1
	.loc 11 1420 61
	cmp	r3, #0
	ite	ne
	movne	r3, #1
	moveq	r3, #0
	uxtb	r3, r3
.LBE1723:
.LBE1722:
	.loc 11 947 29
	cmp	r3, #0
	beq	.L331
	add	r3, sp, #632
	sub	r3, r3, #512
	add	r2, sp, #632
	sub	r2, r2, #496
	ldr	r2, [r2]
	str	r2, [r3]
.LBB1728:
.LBB1729:
	.loc 11 1482 27
	add	r3, sp, #632
	sub	r3, r3, #512
	ldr	r2, [r3]
	add	r3, sp, #632
	sub	r3, r3, #516
	str	r2, [r3]
.LBB1730:
.LBB1731:
	.loc 9 2309 51
	add	r3, sp, #632
	sub	r3, r3, #516
	ldr	r2, [r3]
	add	r3, sp, #632
	sub	r3, r3, #520
	str	r2, [r3]
.LBB1732:
.LBB1733:
	.loc 9 2220 52
	add	r3, sp, #632
	sub	r3, r3, #520
	ldr	r3, [r3]
.LBE1733:
.LBE1732:
	.loc 9 2309 52
	nop
.LBE1731:
.LBE1730:
	.loc 11 1482 34
	ldr	r3, [r3, #4]
	b	.L335
.L331:
	add	r3, sp, #632
	sub	r3, r3, #524
	add	r2, sp, #632
	sub	r2, r2, #496
	ldr	r2, [r2]
	str	r2, [r3]
.LBE1729:
.LBE1728:
.LBB1734:
.LBB1735:
	.loc 11 1472 27
	add	r3, sp, #632
	sub	r3, r3, #524
	ldr	r2, [r3]
	add	r3, sp, #632
	sub	r3, r3, #528
	str	r2, [r3]
.LBB1736:
.LBB1737:
	.loc 9 2309 51
	add	r3, sp, #632
	sub	r3, r3, #528
	ldr	r2, [r3]
	add	r3, sp, #632
	sub	r3, r3, #532
	str	r2, [r3]
.LBB1738:
.LBB1739:
	.loc 9 2220 52
	add	r3, sp, #632
	sub	r3, r3, #532
	ldr	r3, [r3]
.LBE1739:
.LBE1738:
	.loc 9 2309 52
	nop
.LBE1737:
.LBE1736:
	.loc 11 1472 34
	ldrb	r3, [r3]	@ zero_extendqisi2
	.loc 11 1472 42
	lsrs	r3, r3, #1
	uxtb	r3, r3
.L335:
.LBE1735:
.LBE1734:
	.loc 11 947 68
	nop
.LBE1721:
.LBE1720:
	.loc 11 967 52
	cmp	r3, #0
	ite	eq
	moveq	r3, #1
	movne	r3, #0
	uxtb	r3, r3
.LBE1719:
.LBE1718:
	.loc 5 449 3
	cmp	r3, #0
	beq	.L341
	add	r3, sp, #632
	sub	r3, r3, #536
	add	r2, sp, #632
	sub	r2, r2, #628
	ldr	r2, [r2]
	str	r2, [r3]
	add	r3, sp, #632
	sub	r3, r3, #540
	ldr	r2, .L350
	str	r2, [r3]
.LBB1740:
.LBB1741:
	.loc 11 890 92
	add	r3, sp, #632
	sub	r2, r3, #540
	add	r3, sp, #632
	sub	r3, r3, #536
	ldr	r1, [r2]
	ldr	r0, [r3]
	bl	_ZNSt3__112basic_stringIcNS_11char_traitsIcEENS_9allocatorIcEEE6assignEPKc
	.loc 11 890 96
	nop
	b	.L343
.L341:
	add	r3, sp, #632
	sub	r3, r3, #544
	add	r2, sp, #632
	sub	r2, r2, #628
	ldr	r2, [r2]
	str	r2, [r3]
	add	r3, sp, #632
	sub	r3, r3, #548
	ldr	r2, .L350+4
	str	r2, [r3]
.LBE1741:
.LBE1740:
.LBB1742:
.LBB1743:
	.loc 11 985 97
	add	r3, sp, #632
	sub	r2, r3, #548
	add	r3, sp, #632
	sub	r3, r3, #544
	ldr	r1, [r2]
	ldr	r0, [r3]
	bl	_ZNSt3__112basic_stringIcNS_11char_traitsIcEENS_9allocatorIcEEE6appendEPKc
	.loc 11 985 101
	nop
.L343:
.LBE1743:
.LBE1742:
	.loc 5 454 10
	add	r3, sp, #632
	sub	r3, r3, #628
	add	r2, sp, #632
	sub	r2, r2, #628
	ldr	r2, [r2]
	str	r2, [r3]
	.loc 5 455 1
	add	r3, sp, #632
	sub	r3, r3, #628
	ldr	r0, [r3]
	add	sp, sp, #636
.LCFI91:
	@ sp needed
	pop	{r4, r5, r6, r7, pc}
.L351:
	.align	2
.L350:
	.word	.LC22
	.word	.LC23
.LFE3273:
	.size	_ZN6tflite19GetShapeDebugStringEPK14TfLiteIntArray, .-_ZN6tflite19GetShapeDebugStringEPK14TfLiteIntArray
	.section .rodata
	.align	2
.LC24:
	.ascii	"Given shapes, %s and %s, are not broadcastable.\000"
	.section	.text._ZN6tflite26CalculateShapeForBroadcastEP13TfLiteContextPK12TfLiteTensorS4_PP14TfLiteIntArray,"ax",%progbits
	.align	1
	.global	_ZN6tflite26CalculateShapeForBroadcastEP13TfLiteContextPK12TfLiteTensorS4_PP14TfLiteIntArray
	.syntax unified
	.thumb
	.thumb_func
	.type	_ZN6tflite26CalculateShapeForBroadcastEP13TfLiteContextPK12TfLiteTensorS4_PP14TfLiteIntArray, %function
_ZN6tflite26CalculateShapeForBroadcastEP13TfLiteContextPK12TfLiteTensorS4_PP14TfLiteIntArray:
.LFB3274:
	.loc 5 460 72
	@ args = 0, pretend = 0, frame = 352
	@ frame_needed = 0, uses_anonymous_args = 0
	push	{r4, r5, r6, lr}
.LCFI92:
	sub	sp, sp, #352
.LCFI93:
	add	r4, sp, #352
	sub	r4, r4, #340
	str	r0, [r4]
	add	r0, sp, #352
	sub	r0, r0, #344
	str	r1, [r0]
	add	r1, sp, #352
	sub	r1, r1, #348
	str	r2, [r1]
	add	r2, sp, #352
	sub	r2, r2, #352
	str	r3, [r2]
	.loc 5 461 34
	add	r3, sp, #352
	sub	r3, r3, #344
	ldr	r0, [r3]
	bl	_ZN6tflite13NumDimensionsEPK12TfLiteTensor
	mov	r2, r0
	.loc 5 461 41
	add	r3, sp, #352
	sub	r3, r3, #300
	str	r2, [r3]
	.loc 5 462 34
	add	r3, sp, #352
	sub	r3, r3, #348
	ldr	r0, [r3]
	bl	_ZN6tflite13NumDimensionsEPK12TfLiteTensor
	mov	r2, r0
	.loc 5 462 41
	add	r3, sp, #352
	sub	r3, r3, #304
	str	r2, [r3]
	add	r3, sp, #52
	str	r3, [sp, #296]
	add	r3, sp, #48
	str	r3, [sp, #292]
	add	r3, sp, #352
	sub	r3, r3, #316
	strb	r6, [r3]
	ldr	r3, [sp, #296]
	str	r3, [sp, #288]
	ldr	r3, [sp, #292]
	str	r3, [sp, #284]
.LBB1744:
.LBB1745:
.LBB1746:
.LBB1747:
.LBB1748:
.LBB1749:
	.loc 8 715 71
	ldr	r3, [sp, #288]
	ldr	r2, [r3]
	ldr	r3, [sp, #284]
	ldr	r3, [r3]
	.loc 8 715 73
	cmp	r2, r3
	ite	lt
	movlt	r3, #1
	movge	r3, #0
	uxtb	r3, r3
.LBE1749:
.LBE1748:
	.loc 8 2626 29
	cmp	r3, #0
	beq	.L354
	ldr	r3, [sp, #292]
	.loc 8 2626 37
	b	.L437
.L354:
	.loc 8 2626 29
	ldr	r3, [sp, #296]
	.loc 8 2626 37
	nop
.L437:
.LBE1747:
.LBE1746:
	.loc 8 2635 46
	nop
.LBE1745:
.LBE1744:
	.loc 5 463 45
	ldr	r3, [r3]
	str	r3, [sp, #344]
	.loc 5 466 57
	ldr	r0, [sp, #344]
	bl	TfLiteIntArrayCreate
	mov	r2, r0
	.loc 5 466 39
	add	r3, sp, #352
	sub	r3, r3, #296
	ldr	r1, .L441
	str	r1, [r3]
	add	r3, sp, #352
	sub	r3, r3, #320
	str	r2, [r3]
.LBB1750:
.LBB1751:
.LBB1752:
	.loc 9 2502 9
	add	r2, sp, #40
	add	r3, sp, #56
	str	r3, [sp, #340]
.LBB1753:
.LBB1754:
	.loc 10 2261 34
	ldr	r3, [sp, #340]
	str	r2, [sp, #336]
	str	r3, [sp, #332]
.LBE1754:
.LBE1753:
.LBB1755:
.LBB1756:
.LBB1757:
	.loc 9 2289 72
	ldr	r2, [sp, #336]
	add	r3, sp, #32
	str	r3, [sp, #328]
.LBB1758:
.LBB1759:
	.loc 10 2269 34
	ldr	r3, [sp, #328]
	str	r2, [sp, #324]
	str	r3, [sp, #320]
	ldr	r3, [sp, #320]
	str	r3, [sp, #316]
.LBE1759:
.LBE1758:
.LBB1760:
.LBB1761:
.LBB1762:
.LBB1763:
.LBB1764:
	ldr	r3, [sp, #316]
.LBE1764:
.LBE1763:
	.loc 9 2204 9
	ldr	r2, [r3]
	ldr	r3, [sp, #324]
	str	r2, [r3]
.LBE1762:
.LBE1761:
.LBE1760:
	.loc 9 2289 72
	ldr	r3, [sp, #336]
	adds	r2, r3, #4
	ldr	r3, [sp, #332]
	str	r3, [sp, #312]
.LBB1765:
.LBB1766:
	.loc 10 2269 34
	ldr	r3, [sp, #312]
	str	r2, [sp, #308]
	str	r3, [sp, #304]
	ldr	r3, [sp, #304]
	str	r3, [sp, #300]
.LBE1766:
.LBE1765:
.LBB1767:
.LBB1768:
.LBB1769:
.LBB1770:
.LBB1771:
	ldr	r3, [sp, #300]
.LBE1771:
.LBE1770:
	.loc 9 2204 9
	ldr	r2, [r3]
	ldr	r3, [sp, #308]
	str	r2, [r3]
.LBE1769:
.LBE1768:
.LBE1767:
.LBE1757:
.LBE1756:
.LBE1755:
.LBE1752:
.LBE1751:
.LBE1750:
.LBB1772:
	.loc 5 467 12
	movs	r3, #0
	str	r3, [sp, #348]
	.loc 5 467 3
	b	.L367
.L422:
.LBB1773:
	.loc 5 468 25
	add	r3, sp, #352
	sub	r3, r3, #300
	ldr	r3, [r3]
	.loc 5 468 31
	ldr	r2, [sp, #348]
	cmp	r2, r3
	bge	.L368
	.loc 5 468 61 discriminator 1
	add	r3, sp, #352
	sub	r3, r3, #300
	ldr	r2, [r3]
	.loc 5 468 67 discriminator 1
	ldr	r3, [sp, #348]
	subs	r3, r2, r3
	.loc 5 468 52 discriminator 1
	subs	r2, r3, #1
	add	r3, sp, #352
	sub	r3, r3, #344
	mov	r1, r2
	ldr	r0, [r3]
	bl	_ZN6tflite15SizeOfDimensionEPK12TfLiteTensori
	mov	r3, r0
	b	.L369
.L368:
	.loc 5 468 31 discriminator 2
	movs	r3, #1
.L369:
	.loc 5 468 74 discriminator 4
	add	r2, sp, #352
	sub	r2, r2, #324
	str	r3, [r2]
	.loc 5 469 25 discriminator 4
	add	r3, sp, #352
	sub	r3, r3, #304
	ldr	r3, [r3]
	.loc 5 469 31 discriminator 4
	ldr	r2, [sp, #348]
	cmp	r2, r3
	bge	.L370
	.loc 5 469 61 discriminator 1
	add	r3, sp, #352
	sub	r3, r3, #304
	ldr	r2, [r3]
	.loc 5 469 67 discriminator 1
	ldr	r3, [sp, #348]
	subs	r3, r2, r3
	.loc 5 469 52 discriminator 1
	subs	r2, r3, #1
	add	r3, sp, #352
	sub	r3, r3, #348
	mov	r1, r2
	ldr	r0, [r3]
	bl	_ZN6tflite15SizeOfDimensionEPK12TfLiteTensori
	mov	r3, r0
	b	.L371
.L370:
	.loc 5 469 31 discriminator 2
	movs	r3, #1
.L371:
	.loc 5 469 74 discriminator 4
	add	r2, sp, #352
	sub	r2, r2, #328
	str	r3, [r2]
	.loc 5 470 14 discriminator 4
	add	r3, sp, #352
	sub	r3, r3, #324
	ldr	r2, [r3]
	add	r3, sp, #352
	sub	r3, r3, #328
	ldr	r3, [r3]
	.loc 5 470 5 discriminator 4
	cmp	r2, r3
	beq	.L372
	.loc 5 470 26 discriminator 1
	add	r3, sp, #352
	sub	r3, r3, #324
	ldr	r3, [r3]
	.loc 5 470 20 discriminator 1
	cmp	r3, #1
	beq	.L372
	.loc 5 470 37 discriminator 2
	add	r3, sp, #352
	sub	r3, r3, #328
	ldr	r3, [r3]
	.loc 5 470 9 discriminator 2
	cmp	r3, #1
	beq	.L372
	.loc 5 471 7
	add	r3, sp, #352
	sub	r3, r3, #340
	ldr	r3, [r3]
	ldr	r4, [r3, #20]
	add	r3, sp, #352
	sub	r3, r3, #344
	ldr	r3, [r3]
	ldr	r2, [r3, #8]
	add	r3, sp, #352
	sub	r3, r3, #292
	mov	r1, r2
	mov	r0, r3
	bl	_ZN6tflite19GetShapeDebugStringEPK14TfLiteIntArray
	add	r3, sp, #60
	str	r3, [sp, #224]
	ldr	r3, [sp, #224]
	str	r3, [sp, #220]
	ldr	r3, [sp, #220]
	str	r3, [sp, #216]
.LBB1774:
.LBB1775:
.LBB1776:
.LBB1777:
.LBB1778:
.LBB1779:
.LBB1780:
.LBB1781:
	.loc 11 1420 32
	ldr	r3, [sp, #216]
	str	r3, [sp, #212]
.LBB1782:
.LBB1783:
	.loc 9 2309 51
	ldr	r3, [sp, #212]
	str	r3, [sp, #208]
.LBB1784:
.LBB1785:
	.loc 9 2220 52
	ldr	r3, [sp, #208]
.LBE1785:
.LBE1784:
	.loc 9 2309 52
	nop
.LBE1783:
.LBE1782:
	.loc 11 1420 39
	ldrb	r3, [r3]	@ zero_extendqisi2
	.loc 11 1420 47
	and	r3, r3, #1
	.loc 11 1420 61
	cmp	r3, #0
	ite	ne
	movne	r3, #1
	moveq	r3, #0
	uxtb	r3, r3
.LBE1781:
.LBE1780:
	.loc 11 1514 29
	cmp	r3, #0
	beq	.L376
	ldr	r3, [sp, #220]
	str	r3, [sp, #204]
.LBB1786:
.LBB1787:
	.loc 11 1502 27
	ldr	r3, [sp, #204]
	str	r3, [sp, #200]
.LBB1788:
.LBB1789:
	.loc 9 2309 51
	ldr	r3, [sp, #200]
	str	r3, [sp, #196]
.LBB1790:
.LBB1791:
	.loc 9 2220 52
	ldr	r3, [sp, #196]
.LBE1791:
.LBE1790:
	.loc 9 2309 52
	nop
.LBE1789:
.LBE1788:
	.loc 11 1502 34
	ldr	r3, [r3, #8]
	b	.L380
.L376:
	ldr	r3, [sp, #220]
	str	r3, [sp, #192]
.LBE1787:
.LBE1786:
.LBB1792:
.LBB1793:
	.loc 11 1508 69
	ldr	r3, [sp, #192]
	str	r3, [sp, #188]
.LBB1794:
.LBB1795:
	.loc 9 2309 51
	ldr	r3, [sp, #188]
	str	r3, [sp, #184]
.LBB1796:
.LBB1797:
	.loc 9 2220 52
	ldr	r3, [sp, #184]
.LBE1797:
.LBE1796:
	.loc 9 2309 52
	nop
.LBE1795:
.LBE1794:
	.loc 11 1508 83
	adds	r3, r3, #1
	str	r3, [sp, #180]
	ldr	r3, [sp, #180]
	str	r3, [sp, #176]
.LBB1798:
.LBB1799:
.LBB1800:
.LBB1801:
	.loc 10 593 35
	ldr	r3, [sp, #176]
.LBE1801:
.LBE1800:
	.loc 9 988 37
	nop
.LBE1799:
.LBE1798:
	.loc 11 1508 86
	nop
.L380:
.LBE1793:
.LBE1792:
	.loc 11 1514 74
	nop
	str	r3, [sp, #172]
.LBE1779:
.LBE1778:
.LBB1802:
.LBB1803:
	.loc 9 1124 12
	ldr	r5, [sp, #172]
.LBE1803:
.LBE1802:
	.loc 11 1242 90
	nop
.LBE1777:
.LBE1776:
	.loc 11 1240 60
	nop
.LBE1775:
.LBE1774:
	.loc 5 471 7
	add	r3, sp, #352
	sub	r3, r3, #348
	ldr	r3, [r3]
	ldr	r2, [r3, #8]
	add	r3, sp, #352
	sub	r3, r3, #280
	mov	r1, r2
	mov	r0, r3
	bl	_ZN6tflite19GetShapeDebugStringEPK14TfLiteIntArray
	add	r3, sp, #72
	str	r3, [sp, #280]
	ldr	r3, [sp, #280]
	str	r3, [sp, #276]
	ldr	r3, [sp, #276]
	str	r3, [sp, #272]
.LBB1804:
.LBB1805:
.LBB1806:
.LBB1807:
.LBB1808:
.LBB1809:
.LBB1810:
.LBB1811:
	.loc 11 1420 32
	ldr	r3, [sp, #272]
	str	r3, [sp, #268]
.LBB1812:
.LBB1813:
	.loc 9 2309 51
	ldr	r3, [sp, #268]
	str	r3, [sp, #264]
.LBB1814:
.LBB1815:
	.loc 9 2220 52
	ldr	r3, [sp, #264]
.LBE1815:
.LBE1814:
	.loc 9 2309 52
	nop
.LBE1813:
.LBE1812:
	.loc 11 1420 39
	ldrb	r3, [r3]	@ zero_extendqisi2
	.loc 11 1420 47
	and	r3, r3, #1
	.loc 11 1420 61
	cmp	r3, #0
	ite	ne
	movne	r3, #1
	moveq	r3, #0
	uxtb	r3, r3
.LBE1811:
.LBE1810:
	.loc 11 1514 29
	cmp	r3, #0
	beq	.L393
	ldr	r3, [sp, #276]
	str	r3, [sp, #260]
.LBB1816:
.LBB1817:
	.loc 11 1502 27
	ldr	r3, [sp, #260]
	str	r3, [sp, #256]
.LBB1818:
.LBB1819:
	.loc 9 2309 51
	ldr	r3, [sp, #256]
	str	r3, [sp, #252]
.LBB1820:
.LBB1821:
	.loc 9 2220 52
	ldr	r3, [sp, #252]
.LBE1821:
.LBE1820:
	.loc 9 2309 52
	nop
.LBE1819:
.LBE1818:
	.loc 11 1502 34
	ldr	r3, [r3, #8]
	b	.L397
.L393:
	ldr	r3, [sp, #276]
	str	r3, [sp, #248]
.LBE1817:
.LBE1816:
.LBB1822:
.LBB1823:
	.loc 11 1508 69
	ldr	r3, [sp, #248]
	str	r3, [sp, #244]
.LBB1824:
.LBB1825:
	.loc 9 2309 51
	ldr	r3, [sp, #244]
	str	r3, [sp, #240]
.LBB1826:
.LBB1827:
	.loc 9 2220 52
	ldr	r3, [sp, #240]
.LBE1827:
.LBE1826:
	.loc 9 2309 52
	nop
.LBE1825:
.LBE1824:
	.loc 11 1508 83
	adds	r3, r3, #1
	str	r3, [sp, #236]
	ldr	r3, [sp, #236]
	str	r3, [sp, #232]
.LBB1828:
.LBB1829:
.LBB1830:
.LBB1831:
	.loc 10 593 35
	ldr	r3, [sp, #232]
.LBE1831:
.LBE1830:
	.loc 9 988 37
	nop
.LBE1829:
.LBE1828:
	.loc 11 1508 86
	nop
.L397:
.LBE1823:
.LBE1822:
	.loc 11 1514 74
	nop
	str	r3, [sp, #228]
.LBE1809:
.LBE1808:
.LBB1832:
.LBB1833:
	.loc 9 1124 12
	ldr	r3, [sp, #228]
.LBE1833:
.LBE1832:
	.loc 11 1242 90
	nop
.LBE1807:
.LBE1806:
	.loc 11 1240 60
	nop
.LBE1805:
.LBE1804:
	.loc 5 471 7
	add	r2, sp, #352
	sub	r0, r2, #340
	mov	r2, r5
	ldr	r1, .L441+4
	ldr	r0, [r0]
	blx	r4
.LVL17:
	add	r3, sp, #72
	mov	r0, r3
	bl	_ZNSt3__112basic_stringIcNS_11char_traitsIcEENS_9allocatorIcEEED1Ev
	add	r3, sp, #60
	mov	r0, r3
	bl	_ZNSt3__112basic_stringIcNS_11char_traitsIcEENS_9allocatorIcEEED1Ev
	.loc 5 475 14
	movs	r4, #1
	b	.L407
.L372:
	.loc 5 478 12
	add	r3, sp, #352
	sub	r3, r3, #324
	ldr	r3, [r3]
	.loc 5 478 5
	cmp	r3, #0
	beq	.L408
	.loc 5 478 23 discriminator 1
	add	r3, sp, #352
	sub	r3, r3, #328
	ldr	r3, [r3]
	.loc 5 478 17 discriminator 1
	cmp	r3, #0
	bne	.L409
.L408:
.LBB1834:
.LBB1835:
	.loc 9 2587 24
	add	r3, sp, #40
	str	r3, [sp, #168]
.LBB1836:
.LBB1837:
	.loc 9 2309 51
	ldr	r3, [sp, #168]
	str	r3, [sp, #164]
.LBB1838:
.LBB1839:
	.loc 9 2220 52
	ldr	r3, [sp, #164]
.LBE1839:
.LBE1838:
	.loc 9 2309 52
	nop
.LBE1837:
.LBE1836:
	.loc 9 2587 25
	ldr	r2, [r3]
.LBE1835:
.LBE1834:
	.loc 5 479 28
	ldr	r1, [sp, #344]
	ldr	r3, [sp, #348]
	subs	r3, r1, r3
	.loc 5 479 32
	subs	r3, r3, #1
	.loc 5 479 37
	lsls	r3, r3, #2
	add	r3, r3, r2
	movs	r2, #0
	str	r2, [r3, #4]
	b	.L413
.L442:
	.align	2
.L441:
	.word	TfLiteIntArrayFree
	.word	.LC24
.L409:
	add	r3, sp, #28
	str	r3, [sp, #152]
	add	r3, sp, #24
	str	r3, [sp, #148]
	add	r3, sp, #352
	sub	r3, r3, #332
	strb	r5, [r3]
	ldr	r3, [sp, #152]
	str	r3, [sp, #144]
	ldr	r3, [sp, #148]
	str	r3, [sp, #140]
.LBB1840:
.LBB1841:
.LBB1842:
.LBB1843:
.LBB1844:
.LBB1845:
	.loc 8 715 71
	ldr	r3, [sp, #144]
	ldr	r2, [r3]
	ldr	r3, [sp, #140]
	ldr	r3, [r3]
	.loc 8 715 73
	cmp	r2, r3
	ite	lt
	movlt	r3, #1
	movge	r3, #0
	uxtb	r3, r3
.LBE1845:
.LBE1844:
	.loc 8 2626 29
	cmp	r3, #0
	beq	.L415
	ldr	r3, [sp, #148]
	.loc 8 2626 37
	b	.L438
.L415:
	.loc 8 2626 29
	ldr	r3, [sp, #152]
	.loc 8 2626 37
	nop
.L438:
.LBE1843:
.LBE1842:
	.loc 8 2635 46
	nop
.LBE1841:
.LBE1840:
.LBB1846:
.LBB1847:
	.loc 9 2587 24
	add	r2, sp, #40
	str	r2, [sp, #160]
.LBB1848:
.LBB1849:
	.loc 9 2309 51
	ldr	r2, [sp, #160]
	str	r2, [sp, #156]
.LBB1850:
.LBB1851:
	.loc 9 2220 52
	ldr	r2, [sp, #156]
.LBE1851:
.LBE1850:
	.loc 9 2309 52
	nop
.LBE1849:
.LBE1848:
	.loc 9 2587 25
	ldr	r1, [r2]
.LBE1847:
.LBE1846:
	.loc 5 481 28
	ldr	r0, [sp, #344]
	ldr	r2, [sp, #348]
	subs	r2, r0, r2
	.loc 5 481 32
	subs	r0, r2, #1
	.loc 5 481 47
	ldr	r2, [r3]
	.loc 5 481 37
	lsls	r3, r0, #2
	add	r3, r3, r1
	str	r2, [r3, #4]
.L413:
.LBE1773:
	.loc 5 467 3
	ldr	r3, [sp, #348]
	adds	r3, r3, #1
	str	r3, [sp, #348]
.L367:
	.loc 5 467 21 discriminator 1
	ldr	r2, [sp, #348]
	ldr	r3, [sp, #344]
	cmp	r2, r3
	blt	.L422
.LBE1772:
.LBB1852:
.LBB1853:
	.loc 9 2608 31
	add	r3, sp, #40
	str	r3, [sp, #136]
.LBB1854:
.LBB1855:
	.loc 9 2304 45
	ldr	r3, [sp, #136]
	str	r3, [sp, #132]
.LBB1856:
.LBB1857:
	.loc 9 2218 66
	ldr	r3, [sp, #132]
.LBE1857:
.LBE1856:
	.loc 9 2304 46
	nop
.LBE1855:
.LBE1854:
	.loc 9 2608 13
	ldr	r3, [r3]
	str	r3, [sp, #128]
	.loc 9 2609 17
	add	r3, sp, #40
	str	r3, [sp, #124]
.LBB1858:
.LBB1859:
	.loc 9 2304 45
	ldr	r3, [sp, #124]
	str	r3, [sp, #120]
.LBB1860:
.LBB1861:
	.loc 9 2218 66
	ldr	r3, [sp, #120]
.LBE1861:
.LBE1860:
	.loc 9 2304 46
	nop
.LBE1859:
.LBE1858:
	.loc 9 2609 20
	movs	r2, #0
	str	r2, [r3]
	.loc 9 2610 12
	ldr	r2, [sp, #128]
.LBE1853:
.LBE1852:
	.loc 5 484 17
	add	r3, sp, #352
	sub	r3, r3, #352
	ldr	r3, [r3]
	str	r2, [r3]
	.loc 5 485 10
	movs	r4, #0
.L407:
	add	r3, sp, #40
	str	r3, [sp, #116]
	movs	r3, #0
	str	r3, [sp, #112]
.LBB1862:
.LBB1863:
.LBB1864:
.LBB1865:
.LBB1866:
	.loc 9 2615 33
	ldr	r3, [sp, #116]
	str	r3, [sp, #108]
.LBB1867:
.LBB1868:
	.loc 9 2304 45
	ldr	r3, [sp, #108]
	str	r3, [sp, #104]
.LBB1869:
.LBB1870:
	.loc 9 2218 66
	ldr	r3, [sp, #104]
.LBE1870:
.LBE1869:
	.loc 9 2304 46
	nop
.LBE1868:
.LBE1867:
	.loc 9 2615 13
	ldr	r3, [r3]
	str	r3, [sp, #100]
	.loc 9 2616 17
	ldr	r2, [sp, #116]
	add	r3, sp, #352
	sub	r3, r3, #256
	str	r2, [r3]
.LBB1871:
.LBB1872:
	.loc 9 2304 45
	add	r3, sp, #352
	sub	r3, r3, #256
	ldr	r2, [r3]
	add	r3, sp, #352
	sub	r3, r3, #260
	str	r2, [r3]
.LBB1873:
.LBB1874:
	.loc 9 2218 66
	add	r3, sp, #352
	sub	r3, r3, #260
	ldr	r3, [r3]
.LBE1874:
.LBE1873:
	.loc 9 2304 46
	nop
.LBE1872:
.LBE1871:
	.loc 9 2616 20
	ldr	r2, [sp, #112]
	str	r2, [r3]
	.loc 9 2617 5
	ldr	r3, [sp, #100]
	cmp	r3, #0
	beq	.L440
	.loc 9 2618 20
	ldr	r2, [sp, #116]
	add	r3, sp, #352
	sub	r3, r3, #264
	str	r2, [r3]
.LBB1875:
.LBB1876:
	.loc 9 2314 45
	add	r3, sp, #352
	sub	r3, r3, #264
	ldr	r3, [r3]
	adds	r2, r3, #4
	add	r3, sp, #352
	sub	r3, r3, #268
	str	r2, [r3]
.LBB1877:
.LBB1878:
	.loc 9 2218 66
	add	r3, sp, #352
	sub	r3, r3, #268
	ldr	r3, [r3]
.LBE1878:
.LBE1877:
	.loc 9 2314 46
	nop
.LBE1876:
.LBE1875:
	.loc 9 2618 22
	ldr	r3, [r3]
	ldr	r0, [sp, #100]
	blx	r3
.LVL18:
.L440:
	.loc 9 2619 3
	nop
.LBE1866:
.LBE1865:
.LBE1864:
.LBE1863:
.LBE1862:
	.loc 5 486 1
	mov	r3, r4
	mov	r0, r3
	add	sp, sp, #352
.LCFI94:
	@ sp needed
	pop	{r4, r5, r6, pc}
.LFE3274:
	.size	_ZN6tflite26CalculateShapeForBroadcastEP13TfLiteContextPK12TfLiteTensorS4_PP14TfLiteIntArray, .-_ZN6tflite26CalculateShapeForBroadcastEP13TfLiteContextPK12TfLiteTensorS4_PP14TfLiteIntArray
	.section .rodata
	.align	2
.LC25:
	.ascii	"Given shapes, %s, %s and %s, are not broadcastable."
	.ascii	"\000"
	.section	.text._ZN6tflite26CalculateShapeForBroadcastEP13TfLiteContextPK12TfLiteTensorS4_S4_PP14TfLiteIntArray,"ax",%progbits
	.align	1
	.global	_ZN6tflite26CalculateShapeForBroadcastEP13TfLiteContextPK12TfLiteTensorS4_S4_PP14TfLiteIntArray
	.syntax unified
	.thumb
	.thumb_func
	.type	_ZN6tflite26CalculateShapeForBroadcastEP13TfLiteContextPK12TfLiteTensorS4_S4_PP14TfLiteIntArray, %function
_ZN6tflite26CalculateShapeForBroadcastEP13TfLiteContextPK12TfLiteTensorS4_S4_PP14TfLiteIntArray:
.LFB3275:
	.loc 5 492 72
	@ args = 4, pretend = 0, frame = 520
	@ frame_needed = 0, uses_anonymous_args = 0
	push	{r4, r5, r6, r7, r8, r9, r10, lr}
.LCFI95:
	sub	sp, sp, #528
.LCFI96:
	add	r4, sp, #528
	sub	r4, r4, #508
	str	r0, [r4]
	add	r0, sp, #528
	sub	r0, r0, #512
	str	r1, [r0]
	add	r1, sp, #528
	sub	r1, r1, #516
	str	r2, [r1]
	add	r2, sp, #528
	sub	r2, r2, #520
	str	r3, [r2]
	.loc 5 493 34
	add	r3, sp, #528
	sub	r3, r3, #512
	ldr	r0, [r3]
	bl	_ZN6tflite13NumDimensionsEPK12TfLiteTensor
	mov	r2, r0
	.loc 5 493 41
	add	r3, sp, #528
	sub	r3, r3, #444
	str	r2, [r3]
	.loc 5 494 34
	add	r3, sp, #528
	sub	r3, r3, #516
	ldr	r0, [r3]
	bl	_ZN6tflite13NumDimensionsEPK12TfLiteTensor
	mov	r2, r0
	.loc 5 494 41
	add	r3, sp, #528
	sub	r3, r3, #448
	str	r2, [r3]
	.loc 5 495 34
	add	r3, sp, #528
	sub	r3, r3, #520
	ldr	r0, [r3]
	bl	_ZN6tflite13NumDimensionsEPK12TfLiteTensor
	mov	r2, r0
	.loc 5 495 41
	add	r3, sp, #528
	sub	r3, r3, #452
	str	r2, [r3]
	add	r3, sp, #84
	str	r3, [sp, #444]
	add	r3, sp, #80
	str	r3, [sp, #440]
	add	r3, sp, #528
	sub	r3, r3, #464
	strb	r10, [r3]
	ldr	r3, [sp, #444]
	str	r3, [sp, #436]
	ldr	r3, [sp, #440]
	str	r3, [sp, #432]
.LBB1879:
.LBB1880:
.LBB1881:
.LBB1882:
.LBB1883:
.LBB1884:
	.loc 8 715 71
	ldr	r3, [sp, #436]
	ldr	r2, [r3]
	ldr	r3, [sp, #432]
	ldr	r3, [r3]
	.loc 8 715 73
	cmp	r2, r3
	ite	lt
	movlt	r3, #1
	movge	r3, #0
	uxtb	r3, r3
.LBE1884:
.LBE1883:
	.loc 8 2626 29
	cmp	r3, #0
	beq	.L445
	ldr	r3, [sp, #440]
	.loc 8 2626 37
	b	.L565
.L445:
	.loc 8 2626 29
	ldr	r3, [sp, #444]
	.loc 8 2626 37
	nop
.L565:
.LBE1882:
.LBE1881:
	.loc 8 2635 46
	nop
	str	r3, [sp, #464]
	ldr	r3, [sp, #464]
	str	r3, [sp, #460]
	add	r3, sp, #76
	str	r3, [sp, #456]
	add	r3, sp, #528
	sub	r3, r3, #468
	strb	r9, [r3]
	ldr	r3, [sp, #460]
	str	r3, [sp, #452]
	ldr	r3, [sp, #456]
	str	r3, [sp, #448]
.LBE1880:
.LBE1879:
.LBB1885:
.LBB1886:
.LBB1887:
.LBB1888:
.LBB1889:
.LBB1890:
	.loc 8 715 71
	ldr	r3, [sp, #452]
	ldr	r2, [r3]
	ldr	r3, [sp, #448]
	ldr	r3, [r3]
	.loc 8 715 73
	cmp	r2, r3
	ite	lt
	movlt	r3, #1
	movge	r3, #0
	uxtb	r3, r3
.LBE1890:
.LBE1889:
	.loc 8 2626 29
	cmp	r3, #0
	beq	.L450
	ldr	r3, [sp, #456]
	.loc 8 2626 37
	b	.L566
.L450:
	.loc 8 2626 29
	ldr	r3, [sp, #460]
	.loc 8 2626 37
	nop
.L566:
.LBE1888:
.LBE1887:
	.loc 8 2635 46
	nop
.LBE1886:
.LBE1885:
	.loc 5 496 62
	ldr	r3, [r3]
	str	r3, [sp, #516]
	.loc 5 498 57
	ldr	r0, [sp, #516]
	bl	TfLiteIntArrayCreate
	mov	r2, r0
	.loc 5 498 39
	add	r3, sp, #528
	sub	r3, r3, #440
	ldr	r1, .L573
	str	r1, [r3]
	add	r3, sp, #528
	sub	r3, r3, #472
	str	r2, [r3]
.LBB1891:
.LBB1892:
.LBB1893:
	.loc 9 2502 9
	add	r2, sp, #68
	add	r3, sp, #88
	str	r3, [sp, #508]
.LBB1894:
.LBB1895:
	.loc 10 2261 34
	ldr	r3, [sp, #508]
	str	r2, [sp, #504]
	str	r3, [sp, #500]
.LBE1895:
.LBE1894:
.LBB1896:
.LBB1897:
.LBB1898:
	.loc 9 2289 72
	ldr	r2, [sp, #504]
	add	r3, sp, #56
	str	r3, [sp, #496]
.LBB1899:
.LBB1900:
	.loc 10 2269 34
	ldr	r3, [sp, #496]
	str	r2, [sp, #492]
	str	r3, [sp, #488]
	ldr	r3, [sp, #488]
	str	r3, [sp, #484]
.LBE1900:
.LBE1899:
.LBB1901:
.LBB1902:
.LBB1903:
.LBB1904:
.LBB1905:
	ldr	r3, [sp, #484]
.LBE1905:
.LBE1904:
	.loc 9 2204 9
	ldr	r2, [r3]
	ldr	r3, [sp, #492]
	str	r2, [r3]
.LBE1903:
.LBE1902:
.LBE1901:
	.loc 9 2289 72
	ldr	r3, [sp, #504]
	adds	r2, r3, #4
	ldr	r3, [sp, #500]
	str	r3, [sp, #480]
.LBB1906:
.LBB1907:
	.loc 10 2269 34
	ldr	r3, [sp, #480]
	str	r2, [sp, #476]
	str	r3, [sp, #472]
	ldr	r3, [sp, #472]
	str	r3, [sp, #468]
.LBE1907:
.LBE1906:
.LBB1908:
.LBB1909:
.LBB1910:
.LBB1911:
.LBB1912:
	ldr	r3, [sp, #468]
.LBE1912:
.LBE1911:
	.loc 9 2204 9
	ldr	r2, [r3]
	ldr	r3, [sp, #476]
	str	r2, [r3]
.LBE1910:
.LBE1909:
.LBE1908:
.LBE1898:
.LBE1897:
.LBE1896:
.LBE1893:
.LBE1892:
.LBE1891:
.LBB1913:
	.loc 5 499 12
	movs	r3, #0
	str	r3, [sp, #524]
	.loc 5 499 3
	b	.L463
.L550:
.LBB1914:
	.loc 5 500 25
	add	r3, sp, #528
	sub	r3, r3, #444
	ldr	r3, [r3]
	.loc 5 500 31
	ldr	r2, [sp, #524]
	cmp	r2, r3
	bge	.L464
	.loc 5 500 61 discriminator 1
	add	r3, sp, #528
	sub	r3, r3, #444
	ldr	r2, [r3]
	.loc 5 500 67 discriminator 1
	ldr	r3, [sp, #524]
	subs	r3, r2, r3
	.loc 5 500 52 discriminator 1
	subs	r2, r3, #1
	add	r3, sp, #528
	sub	r3, r3, #512
	mov	r1, r2
	ldr	r0, [r3]
	bl	_ZN6tflite15SizeOfDimensionEPK12TfLiteTensori
	mov	r3, r0
	b	.L465
.L464:
	.loc 5 500 31 discriminator 2
	movs	r3, #1
.L465:
	.loc 5 500 74 discriminator 4
	add	r2, sp, #528
	sub	r2, r2, #476
	str	r3, [r2]
	.loc 5 501 25 discriminator 4
	add	r3, sp, #528
	sub	r3, r3, #448
	ldr	r3, [r3]
	.loc 5 501 31 discriminator 4
	ldr	r2, [sp, #524]
	cmp	r2, r3
	bge	.L466
	.loc 5 501 61 discriminator 1
	add	r3, sp, #528
	sub	r3, r3, #448
	ldr	r2, [r3]
	.loc 5 501 67 discriminator 1
	ldr	r3, [sp, #524]
	subs	r3, r2, r3
	.loc 5 501 52 discriminator 1
	subs	r2, r3, #1
	add	r3, sp, #528
	sub	r3, r3, #516
	mov	r1, r2
	ldr	r0, [r3]
	bl	_ZN6tflite15SizeOfDimensionEPK12TfLiteTensori
	mov	r3, r0
	b	.L467
.L466:
	.loc 5 501 31 discriminator 2
	movs	r3, #1
.L467:
	.loc 5 501 74 discriminator 4
	add	r2, sp, #528
	sub	r2, r2, #480
	str	r3, [r2]
	.loc 5 502 25 discriminator 4
	add	r3, sp, #528
	sub	r3, r3, #452
	ldr	r3, [r3]
	.loc 5 502 31 discriminator 4
	ldr	r2, [sp, #524]
	cmp	r2, r3
	bge	.L468
	.loc 5 502 61 discriminator 1
	add	r3, sp, #528
	sub	r3, r3, #452
	ldr	r2, [r3]
	.loc 5 502 67 discriminator 1
	ldr	r3, [sp, #524]
	subs	r3, r2, r3
	.loc 5 502 52 discriminator 1
	subs	r2, r3, #1
	add	r3, sp, #528
	sub	r3, r3, #520
	mov	r1, r2
	ldr	r0, [r3]
	bl	_ZN6tflite15SizeOfDimensionEPK12TfLiteTensori
	mov	r3, r0
	b	.L469
.L468:
	.loc 5 502 31 discriminator 2
	movs	r3, #1
.L469:
	.loc 5 502 74 discriminator 4
	add	r2, sp, #528
	sub	r2, r2, #484
	str	r3, [r2]
	add	r3, sp, #52
	str	r3, [sp, #372]
	add	r3, sp, #48
	str	r3, [sp, #368]
	add	r3, sp, #528
	sub	r3, r3, #488
	strb	r5, [r3]
	ldr	r3, [sp, #368]
	str	r3, [sp, #364]
	ldr	r3, [sp, #372]
	str	r3, [sp, #360]
.LBB1915:
.LBB1916:
.LBB1917:
.LBB1918:
.LBB1919:
.LBB1920:
	.loc 8 715 71 discriminator 4
	ldr	r3, [sp, #364]
	ldr	r2, [r3]
	ldr	r3, [sp, #360]
	ldr	r3, [r3]
	.loc 8 715 73 discriminator 4
	cmp	r2, r3
	ite	lt
	movlt	r3, #1
	movge	r3, #0
	uxtb	r3, r3
.LBE1920:
.LBE1919:
	.loc 8 2553 29 discriminator 4
	cmp	r3, #0
	beq	.L471
	.loc 8 2553 29 is_stmt 0
	ldr	r3, [sp, #368]
	.loc 8 2553 37 is_stmt 1
	b	.L567
.L471:
	.loc 8 2553 29
	ldr	r3, [sp, #372]
	.loc 8 2553 37
	nop
.L567:
.LBE1918:
.LBE1917:
	.loc 8 2562 46
	nop
	str	r3, [sp, #392]
	ldr	r3, [sp, #392]
	str	r3, [sp, #388]
	add	r3, sp, #44
	str	r3, [sp, #384]
	add	r3, sp, #528
	sub	r3, r3, #492
	strb	r6, [r3]
	ldr	r3, [sp, #384]
	str	r3, [sp, #380]
	ldr	r3, [sp, #388]
	str	r3, [sp, #376]
.LBE1916:
.LBE1915:
.LBB1921:
.LBB1922:
.LBB1923:
.LBB1924:
.LBB1925:
.LBB1926:
	.loc 8 715 71
	ldr	r3, [sp, #380]
	ldr	r2, [r3]
	ldr	r3, [sp, #376]
	ldr	r3, [r3]
	.loc 8 715 73
	cmp	r2, r3
	ite	lt
	movlt	r3, #1
	movge	r3, #0
	uxtb	r3, r3
.LBE1926:
.LBE1925:
	.loc 8 2553 29
	cmp	r3, #0
	beq	.L476
	ldr	r3, [sp, #384]
	.loc 8 2553 37
	b	.L568
.L476:
	.loc 8 2553 29
	ldr	r3, [sp, #388]
	.loc 8 2553 37
	nop
.L568:
.LBE1924:
.LBE1923:
	.loc 8 2562 46
	nop
.LBE1922:
.LBE1921:
	.loc 5 503 56
	ldr	r3, [r3]
	str	r3, [sp, #512]
	add	r3, sp, #52
	str	r3, [sp, #408]
	add	r3, sp, #48
	str	r3, [sp, #404]
	add	r3, sp, #528
	sub	r3, r3, #496
	strb	r7, [r3]
	ldr	r3, [sp, #408]
	str	r3, [sp, #400]
	ldr	r3, [sp, #404]
	str	r3, [sp, #396]
.LBB1927:
.LBB1928:
.LBB1929:
.LBB1930:
.LBB1931:
.LBB1932:
	.loc 8 715 71
	ldr	r3, [sp, #400]
	ldr	r2, [r3]
	ldr	r3, [sp, #396]
	ldr	r3, [r3]
	.loc 8 715 73
	cmp	r2, r3
	ite	lt
	movlt	r3, #1
	movge	r3, #0
	uxtb	r3, r3
.LBE1932:
.LBE1931:
	.loc 8 2626 29
	cmp	r3, #0
	beq	.L481
	ldr	r3, [sp, #404]
	.loc 8 2626 37
	b	.L569
.L481:
	.loc 8 2626 29
	ldr	r3, [sp, #408]
	.loc 8 2626 37
	nop
.L569:
.LBE1930:
.LBE1929:
	.loc 8 2635 46
	nop
	str	r3, [sp, #428]
	ldr	r3, [sp, #428]
	str	r3, [sp, #424]
	add	r3, sp, #44
	str	r3, [sp, #420]
	add	r3, sp, #528
	sub	r3, r3, #500
	strb	r8, [r3]
	ldr	r3, [sp, #424]
	str	r3, [sp, #416]
	ldr	r3, [sp, #420]
	str	r3, [sp, #412]
.LBE1928:
.LBE1927:
.LBB1933:
.LBB1934:
.LBB1935:
.LBB1936:
.LBB1937:
.LBB1938:
	.loc 8 715 71
	ldr	r3, [sp, #416]
	ldr	r2, [r3]
	ldr	r3, [sp, #412]
	ldr	r3, [r3]
	.loc 8 715 73
	cmp	r2, r3
	ite	lt
	movlt	r3, #1
	movge	r3, #0
	uxtb	r3, r3
.LBE1938:
.LBE1937:
	.loc 8 2626 29
	cmp	r3, #0
	beq	.L486
	ldr	r3, [sp, #420]
	.loc 8 2626 37
	b	.L570
.L574:
	.align	2
.L573:
	.word	TfLiteIntArrayFree
.L486:
	.loc 8 2626 29
	ldr	r3, [sp, #424]
	.loc 8 2626 37
	nop
.L570:
.LBE1936:
.LBE1935:
	.loc 8 2635 46
	nop
.LBE1934:
.LBE1933:
	.loc 5 504 50
	ldr	r3, [r3]
	str	r3, [sp, #520]
	.loc 5 506 5
	ldr	r3, [sp, #512]
	cmp	r3, #0
	bne	.L490
	.loc 5 506 35 discriminator 1
	movs	r3, #0
	str	r3, [sp, #520]
.L490:
	.loc 5 507 14
	add	r3, sp, #528
	sub	r3, r3, #476
	ldr	r3, [r3]
	.loc 5 507 5
	cmp	r3, #1
	beq	.L491
	.loc 5 507 22 discriminator 1
	add	r3, sp, #528
	sub	r3, r3, #476
	ldr	r3, [r3]
	.loc 5 507 9 discriminator 1
	ldr	r2, [sp, #520]
	cmp	r2, r3
	bne	.L492
.L491:
	.loc 5 507 47 discriminator 3
	add	r3, sp, #528
	sub	r3, r3, #480
	ldr	r3, [r3]
	.loc 5 507 39 discriminator 3
	cmp	r3, #1
	beq	.L493
	.loc 5 507 55 discriminator 4
	add	r3, sp, #528
	sub	r3, r3, #480
	ldr	r3, [r3]
	.loc 5 507 42 discriminator 4
	ldr	r2, [sp, #520]
	cmp	r2, r3
	bne	.L492
.L493:
	.loc 5 508 14 discriminator 6
	add	r3, sp, #528
	sub	r3, r3, #484
	ldr	r3, [r3]
	.loc 5 507 72 discriminator 6
	cmp	r3, #1
	beq	.L494
	.loc 5 508 22
	add	r3, sp, #528
	sub	r3, r3, #484
	ldr	r3, [r3]
	.loc 5 508 9
	ldr	r2, [sp, #520]
	cmp	r2, r3
	beq	.L494
.L492:
	.loc 5 509 7
	add	r3, sp, #528
	sub	r3, r3, #508
	ldr	r3, [r3]
	ldr	r4, [r3, #20]
	add	r3, sp, #528
	sub	r3, r3, #512
	ldr	r3, [r3]
	ldr	r2, [r3, #8]
	add	r3, sp, #528
	sub	r3, r3, #436
	mov	r1, r2
	mov	r0, r3
	bl	_ZN6tflite19GetShapeDebugStringEPK14TfLiteIntArray
	add	r3, sp, #528
	sub	r3, r3, #284
	add	r2, sp, #92
	str	r2, [r3]
	add	r3, sp, #528
	sub	r3, r3, #288
	add	r2, sp, #528
	sub	r2, r2, #284
	ldr	r2, [r2]
	str	r2, [r3]
	add	r3, sp, #528
	sub	r3, r3, #292
	add	r2, sp, #528
	sub	r2, r2, #288
	ldr	r2, [r2]
	str	r2, [r3]
.LBB1939:
.LBB1940:
.LBB1941:
.LBB1942:
.LBB1943:
.LBB1944:
.LBB1945:
.LBB1946:
	.loc 11 1420 32
	add	r3, sp, #528
	sub	r3, r3, #292
	ldr	r2, [r3]
	add	r3, sp, #528
	sub	r3, r3, #296
	str	r2, [r3]
.LBB1947:
.LBB1948:
	.loc 9 2309 51
	add	r3, sp, #528
	sub	r3, r3, #296
	ldr	r2, [r3]
	add	r3, sp, #528
	sub	r3, r3, #300
	str	r2, [r3]
.LBB1949:
.LBB1950:
	.loc 9 2220 52
	add	r3, sp, #528
	sub	r3, r3, #300
	ldr	r3, [r3]
.LBE1950:
.LBE1949:
	.loc 9 2309 52
	nop
.LBE1948:
.LBE1947:
	.loc 11 1420 39
	ldrb	r3, [r3]	@ zero_extendqisi2
	.loc 11 1420 47
	and	r3, r3, #1
	.loc 11 1420 61
	cmp	r3, #0
	ite	ne
	movne	r3, #1
	moveq	r3, #0
	uxtb	r3, r3
.LBE1946:
.LBE1945:
	.loc 11 1514 29
	cmp	r3, #0
	beq	.L498
	add	r3, sp, #528
	sub	r3, r3, #304
	add	r2, sp, #528
	sub	r2, r2, #288
	ldr	r2, [r2]
	str	r2, [r3]
.LBB1951:
.LBB1952:
	.loc 11 1502 27
	add	r3, sp, #528
	sub	r3, r3, #304
	ldr	r2, [r3]
	add	r3, sp, #528
	sub	r3, r3, #308
	str	r2, [r3]
.LBB1953:
.LBB1954:
	.loc 9 2309 51
	add	r3, sp, #528
	sub	r3, r3, #308
	ldr	r2, [r3]
	add	r3, sp, #528
	sub	r3, r3, #312
	str	r2, [r3]
.LBB1955:
.LBB1956:
	.loc 9 2220 52
	add	r3, sp, #528
	sub	r3, r3, #312
	ldr	r3, [r3]
.LBE1956:
.LBE1955:
	.loc 9 2309 52
	nop
.LBE1954:
.LBE1953:
	.loc 11 1502 34
	ldr	r3, [r3, #8]
	b	.L502
.L498:
	add	r3, sp, #528
	sub	r3, r3, #316
	add	r2, sp, #528
	sub	r2, r2, #288
	ldr	r2, [r2]
	str	r2, [r3]
.LBE1952:
.LBE1951:
.LBB1957:
.LBB1958:
	.loc 11 1508 69
	add	r3, sp, #528
	sub	r3, r3, #316
	ldr	r2, [r3]
	add	r3, sp, #528
	sub	r3, r3, #320
	str	r2, [r3]
.LBB1959:
.LBB1960:
	.loc 9 2309 51
	add	r3, sp, #528
	sub	r3, r3, #320
	ldr	r2, [r3]
	add	r3, sp, #528
	sub	r3, r3, #324
	str	r2, [r3]
.LBB1961:
.LBB1962:
	.loc 9 2220 52
	add	r3, sp, #528
	sub	r3, r3, #324
	ldr	r3, [r3]
.LBE1962:
.LBE1961:
	.loc 9 2309 52
	nop
.LBE1960:
.LBE1959:
	.loc 11 1508 83
	adds	r2, r3, #1
	add	r3, sp, #528
	sub	r3, r3, #328
	str	r2, [r3]
	add	r3, sp, #528
	sub	r3, r3, #332
	add	r2, sp, #528
	sub	r2, r2, #328
	ldr	r2, [r2]
	str	r2, [r3]
.LBB1963:
.LBB1964:
.LBB1965:
.LBB1966:
	.loc 10 593 35
	add	r3, sp, #528
	sub	r3, r3, #332
	ldr	r3, [r3]
.LBE1966:
.LBE1965:
	.loc 9 988 37
	nop
.LBE1964:
.LBE1963:
	.loc 11 1508 86
	nop
.L502:
.LBE1958:
.LBE1957:
	.loc 11 1514 74
	nop
	add	r2, sp, #528
	sub	r2, r2, #336
	str	r3, [r2]
.LBE1944:
.LBE1943:
.LBB1967:
.LBB1968:
	.loc 9 1124 12
	add	r3, sp, #528
	sub	r3, r3, #336
	ldr	r5, [r3]
.LBE1968:
.LBE1967:
	.loc 11 1242 90
	nop
.LBE1942:
.LBE1941:
	.loc 11 1240 60
	nop
.LBE1940:
.LBE1939:
	.loc 5 509 7
	add	r3, sp, #528
	sub	r3, r3, #516
	ldr	r3, [r3]
	ldr	r2, [r3, #8]
	add	r3, sp, #528
	sub	r3, r3, #424
	mov	r1, r2
	mov	r0, r3
	bl	_ZN6tflite19GetShapeDebugStringEPK14TfLiteIntArray
	add	r3, sp, #104
	str	r3, [sp, #300]
	ldr	r3, [sp, #300]
	str	r3, [sp, #296]
	ldr	r3, [sp, #296]
	str	r3, [sp, #292]
.LBB1969:
.LBB1970:
.LBB1971:
.LBB1972:
.LBB1973:
.LBB1974:
.LBB1975:
.LBB1976:
	.loc 11 1420 32
	ldr	r3, [sp, #292]
	str	r3, [sp, #288]
.LBB1977:
.LBB1978:
	.loc 9 2309 51
	ldr	r3, [sp, #288]
	str	r3, [sp, #284]
.LBB1979:
.LBB1980:
	.loc 9 2220 52
	ldr	r3, [sp, #284]
.LBE1980:
.LBE1979:
	.loc 9 2309 52
	nop
.LBE1978:
.LBE1977:
	.loc 11 1420 39
	ldrb	r3, [r3]	@ zero_extendqisi2
	.loc 11 1420 47
	and	r3, r3, #1
	.loc 11 1420 61
	cmp	r3, #0
	ite	ne
	movne	r3, #1
	moveq	r3, #0
	uxtb	r3, r3
.LBE1976:
.LBE1975:
	.loc 11 1514 29
	cmp	r3, #0
	beq	.L515
	ldr	r3, [sp, #296]
	str	r3, [sp, #280]
.LBB1981:
.LBB1982:
	.loc 11 1502 27
	ldr	r3, [sp, #280]
	str	r3, [sp, #276]
.LBB1983:
.LBB1984:
	.loc 9 2309 51
	ldr	r2, [sp, #276]
	add	r3, sp, #528
	sub	r3, r3, #256
	str	r2, [r3]
.LBB1985:
.LBB1986:
	.loc 9 2220 52
	add	r3, sp, #528
	sub	r3, r3, #256
	ldr	r3, [r3]
.LBE1986:
.LBE1985:
	.loc 9 2309 52
	nop
.LBE1984:
.LBE1983:
	.loc 11 1502 34
	ldr	r3, [r3, #8]
	b	.L519
.L515:
	add	r3, sp, #528
	sub	r3, r3, #260
	ldr	r2, [sp, #296]
	str	r2, [r3]
.LBE1982:
.LBE1981:
.LBB1987:
.LBB1988:
	.loc 11 1508 69
	add	r3, sp, #528
	sub	r3, r3, #260
	ldr	r2, [r3]
	add	r3, sp, #528
	sub	r3, r3, #264
	str	r2, [r3]
.LBB1989:
.LBB1990:
	.loc 9 2309 51
	add	r3, sp, #528
	sub	r3, r3, #264
	ldr	r2, [r3]
	add	r3, sp, #528
	sub	r3, r3, #268
	str	r2, [r3]
.LBB1991:
.LBB1992:
	.loc 9 2220 52
	add	r3, sp, #528
	sub	r3, r3, #268
	ldr	r3, [r3]
.LBE1992:
.LBE1991:
	.loc 9 2309 52
	nop
.LBE1990:
.LBE1989:
	.loc 11 1508 83
	adds	r2, r3, #1
	add	r3, sp, #528
	sub	r3, r3, #272
	str	r2, [r3]
	add	r3, sp, #528
	sub	r3, r3, #276
	add	r2, sp, #528
	sub	r2, r2, #272
	ldr	r2, [r2]
	str	r2, [r3]
.LBB1993:
.LBB1994:
.LBB1995:
.LBB1996:
	.loc 10 593 35
	add	r3, sp, #528
	sub	r3, r3, #276
	ldr	r3, [r3]
.LBE1996:
.LBE1995:
	.loc 9 988 37
	nop
.LBE1994:
.LBE1993:
	.loc 11 1508 86
	nop
.L519:
.LBE1988:
.LBE1987:
	.loc 11 1514 74
	nop
	add	r2, sp, #528
	sub	r2, r2, #280
	str	r3, [r2]
.LBE1974:
.LBE1973:
.LBB1997:
.LBB1998:
	.loc 9 1124 12
	add	r3, sp, #528
	sub	r3, r3, #280
	ldr	r6, [r3]
.LBE1998:
.LBE1997:
	.loc 11 1242 90
	nop
.LBE1972:
.LBE1971:
	.loc 11 1240 60
	nop
.LBE1970:
.LBE1969:
	.loc 5 509 7
	add	r3, sp, #528
	sub	r3, r3, #520
	ldr	r3, [r3]
	ldr	r2, [r3, #8]
	add	r3, sp, #528
	sub	r3, r3, #412
	mov	r1, r2
	mov	r0, r3
	bl	_ZN6tflite19GetShapeDebugStringEPK14TfLiteIntArray
	add	r3, sp, #116
	str	r3, [sp, #356]
	ldr	r3, [sp, #356]
	str	r3, [sp, #352]
	ldr	r3, [sp, #352]
	str	r3, [sp, #348]
.LBB1999:
.LBB2000:
.LBB2001:
.LBB2002:
.LBB2003:
.LBB2004:
.LBB2005:
.LBB2006:
	.loc 11 1420 32
	ldr	r3, [sp, #348]
	str	r3, [sp, #344]
.LBB2007:
.LBB2008:
	.loc 9 2309 51
	ldr	r3, [sp, #344]
	str	r3, [sp, #340]
.LBB2009:
.LBB2010:
	.loc 9 2220 52
	ldr	r3, [sp, #340]
.LBE2010:
.LBE2009:
	.loc 9 2309 52
	nop
.LBE2008:
.LBE2007:
	.loc 11 1420 39
	ldrb	r3, [r3]	@ zero_extendqisi2
	.loc 11 1420 47
	and	r3, r3, #1
	.loc 11 1420 61
	cmp	r3, #0
	ite	ne
	movne	r3, #1
	moveq	r3, #0
	uxtb	r3, r3
.LBE2006:
.LBE2005:
	.loc 11 1514 29
	cmp	r3, #0
	beq	.L532
	ldr	r3, [sp, #352]
	str	r3, [sp, #336]
.LBB2011:
.LBB2012:
	.loc 11 1502 27
	ldr	r3, [sp, #336]
	str	r3, [sp, #332]
.LBB2013:
.LBB2014:
	.loc 9 2309 51
	ldr	r3, [sp, #332]
	str	r3, [sp, #328]
.LBB2015:
.LBB2016:
	.loc 9 2220 52
	ldr	r3, [sp, #328]
.LBE2016:
.LBE2015:
	.loc 9 2309 52
	nop
.LBE2014:
.LBE2013:
	.loc 11 1502 34
	ldr	r3, [r3, #8]
	b	.L536
.L532:
	ldr	r3, [sp, #352]
	str	r3, [sp, #324]
.LBE2012:
.LBE2011:
.LBB2017:
.LBB2018:
	.loc 11 1508 69
	ldr	r3, [sp, #324]
	str	r3, [sp, #320]
.LBB2019:
.LBB2020:
	.loc 9 2309 51
	ldr	r3, [sp, #320]
	str	r3, [sp, #316]
.LBB2021:
.LBB2022:
	.loc 9 2220 52
	ldr	r3, [sp, #316]
.LBE2022:
.LBE2021:
	.loc 9 2309 52
	nop
.LBE2020:
.LBE2019:
	.loc 11 1508 83
	adds	r3, r3, #1
	str	r3, [sp, #312]
	ldr	r3, [sp, #312]
	str	r3, [sp, #308]
.LBB2023:
.LBB2024:
.LBB2025:
.LBB2026:
	.loc 10 593 35
	ldr	r3, [sp, #308]
.LBE2026:
.LBE2025:
	.loc 9 988 37
	nop
.LBE2024:
.LBE2023:
	.loc 11 1508 86
	nop
.L536:
.LBE2018:
.LBE2017:
	.loc 11 1514 74
	nop
	str	r3, [sp, #304]
.LBE2004:
.LBE2003:
.LBB2027:
.LBB2028:
	.loc 9 1124 12
	ldr	r3, [sp, #304]
.LBE2028:
.LBE2027:
	.loc 11 1242 90
	nop
.LBE2002:
.LBE2001:
	.loc 11 1240 60
	nop
.LBE2000:
.LBE1999:
	.loc 5 509 7
	add	r2, sp, #528
	sub	r0, r2, #508
	str	r3, [sp]
	mov	r3, r6
	mov	r2, r5
	ldr	r1, .L575
	ldr	r0, [r0]
	blx	r4
.LVL19:
	add	r3, sp, #116
	mov	r0, r3
	bl	_ZNSt3__112basic_stringIcNS_11char_traitsIcEENS_9allocatorIcEEED1Ev
	add	r3, sp, #104
	mov	r0, r3
	bl	_ZNSt3__112basic_stringIcNS_11char_traitsIcEENS_9allocatorIcEEED1Ev
	add	r3, sp, #92
	mov	r0, r3
	bl	_ZNSt3__112basic_stringIcNS_11char_traitsIcEENS_9allocatorIcEEED1Ev
	.loc 5 514 14
	movs	r4, #1
	b	.L546
.L494:
.LBB2029:
.LBB2030:
	.loc 9 2587 24
	add	r2, sp, #68
	add	r3, sp, #528
	sub	r3, r3, #340
	str	r2, [r3]
.LBB2031:
.LBB2032:
	.loc 9 2309 51
	add	r3, sp, #528
	sub	r3, r3, #340
	ldr	r2, [r3]
	add	r3, sp, #528
	sub	r3, r3, #344
	str	r2, [r3]
.LBB2033:
.LBB2034:
	.loc 9 2220 52
	add	r3, sp, #528
	sub	r3, r3, #344
	ldr	r3, [r3]
.LBE2034:
.LBE2033:
	.loc 9 2309 52
	nop
.LBE2032:
.LBE2031:
	.loc 9 2587 25
	ldr	r2, [r3]
.LBE2030:
.LBE2029:
	.loc 5 516 26
	ldr	r1, [sp, #516]
	ldr	r3, [sp, #524]
	subs	r3, r1, r3
	.loc 5 516 30
	subs	r3, r3, #1
	.loc 5 516 35
	lsls	r3, r3, #2
	add	r3, r3, r2
	ldr	r2, [sp, #520]
	str	r2, [r3, #4]
.LBE1914:
	.loc 5 499 3
	ldr	r3, [sp, #524]
	adds	r3, r3, #1
	str	r3, [sp, #524]
.L463:
	.loc 5 499 21 discriminator 1
	ldr	r2, [sp, #524]
	ldr	r3, [sp, #516]
	cmp	r2, r3
	blt	.L550
.LBE1913:
.LBB2035:
.LBB2036:
	.loc 9 2608 31
	add	r2, sp, #68
	add	r3, sp, #528
	sub	r3, r3, #348
	str	r2, [r3]
.LBB2037:
.LBB2038:
	.loc 9 2304 45
	add	r3, sp, #528
	sub	r3, r3, #348
	ldr	r2, [r3]
	add	r3, sp, #528
	sub	r3, r3, #352
	str	r2, [r3]
.LBB2039:
.LBB2040:
	.loc 9 2218 66
	add	r3, sp, #528
	sub	r3, r3, #352
	ldr	r2, [r3]
.LBE2040:
.LBE2039:
	.loc 9 2304 46
	nop
.LBE2038:
.LBE2037:
	.loc 9 2608 13
	add	r3, sp, #528
	sub	r3, r3, #356
	ldr	r2, [r2]
	str	r2, [r3]
	.loc 9 2609 17
	add	r2, sp, #68
	add	r3, sp, #528
	sub	r3, r3, #360
	str	r2, [r3]
.LBB2041:
.LBB2042:
	.loc 9 2304 45
	add	r3, sp, #528
	sub	r3, r3, #360
	ldr	r2, [r3]
	add	r3, sp, #528
	sub	r3, r3, #364
	str	r2, [r3]
.LBB2043:
.LBB2044:
	.loc 9 2218 66
	add	r3, sp, #528
	sub	r3, r3, #364
	ldr	r3, [r3]
.LBE2044:
.LBE2043:
	.loc 9 2304 46
	nop
.LBE2042:
.LBE2041:
	.loc 9 2609 20
	movs	r2, #0
	str	r2, [r3]
	.loc 9 2610 12
	add	r3, sp, #528
	sub	r3, r3, #356
	ldr	r2, [r3]
.LBE2036:
.LBE2035:
	.loc 5 518 17
	ldr	r3, [sp, #560]
	str	r2, [r3]
	.loc 5 519 10
	movs	r4, #0
.L546:
	add	r3, sp, #528
	sub	r3, r3, #368
	add	r2, sp, #68
	str	r2, [r3]
	add	r3, sp, #528
	sub	r3, r3, #372
	movs	r2, #0
	str	r2, [r3]
.LBB2045:
.LBB2046:
.LBB2047:
.LBB2048:
.LBB2049:
	.loc 9 2615 33
	add	r3, sp, #528
	sub	r3, r3, #368
	ldr	r2, [r3]
	add	r3, sp, #528
	sub	r3, r3, #376
	str	r2, [r3]
.LBB2050:
.LBB2051:
	.loc 9 2304 45
	add	r3, sp, #528
	sub	r3, r3, #376
	ldr	r2, [r3]
	add	r3, sp, #528
	sub	r3, r3, #380
	str	r2, [r3]
.LBB2052:
.LBB2053:
	.loc 9 2218 66
	add	r3, sp, #528
	sub	r3, r3, #380
	ldr	r2, [r3]
.LBE2053:
.LBE2052:
	.loc 9 2304 46
	nop
.LBE2051:
.LBE2050:
	.loc 9 2615 13
	add	r3, sp, #528
	sub	r3, r3, #384
	ldr	r2, [r2]
	str	r2, [r3]
	.loc 9 2616 17
	add	r3, sp, #528
	sub	r3, r3, #368
	ldr	r2, [r3]
	add	r3, sp, #528
	sub	r3, r3, #388
	str	r2, [r3]
.LBB2054:
.LBB2055:
	.loc 9 2304 45
	add	r3, sp, #528
	sub	r3, r3, #388
	ldr	r2, [r3]
	add	r3, sp, #528
	sub	r3, r3, #392
	str	r2, [r3]
.LBB2056:
.LBB2057:
	.loc 9 2218 66
	add	r3, sp, #528
	sub	r3, r3, #392
	ldr	r3, [r3]
.LBE2057:
.LBE2056:
	.loc 9 2304 46
	nop
.LBE2055:
.LBE2054:
	.loc 9 2616 20
	add	r2, sp, #528
	sub	r2, r2, #372
	ldr	r2, [r2]
	str	r2, [r3]
	.loc 9 2617 5
	add	r3, sp, #528
	sub	r3, r3, #384
	ldr	r3, [r3]
	cmp	r3, #0
	beq	.L572
	.loc 9 2618 20
	add	r3, sp, #528
	sub	r3, r3, #368
	ldr	r2, [r3]
	add	r3, sp, #528
	sub	r3, r3, #396
	str	r2, [r3]
.LBB2058:
.LBB2059:
	.loc 9 2314 45
	add	r3, sp, #528
	sub	r3, r3, #396
	ldr	r3, [r3]
	adds	r2, r3, #4
	add	r3, sp, #528
	sub	r3, r3, #400
	str	r2, [r3]
.LBB2060:
.LBB2061:
	.loc 9 2218 66
	add	r3, sp, #528
	sub	r3, r3, #400
	ldr	r3, [r3]
.LBE2061:
.LBE2060:
	.loc 9 2314 46
	nop
.LBE2059:
.LBE2058:
	.loc 9 2618 22
	ldr	r3, [r3]
	add	r2, sp, #528
	sub	r2, r2, #384
	ldr	r0, [r2]
	blx	r3
.LVL20:
.L572:
	.loc 9 2619 3
	nop
.LBE2049:
.LBE2048:
.LBE2047:
.LBE2046:
.LBE2045:
	.loc 5 520 1
	mov	r3, r4
	mov	r0, r3
	add	sp, sp, #528
.LCFI97:
	@ sp needed
	pop	{r4, r5, r6, r7, r8, r9, r10, pc}
.L576:
	.align	2
.L575:
	.word	.LC25
.LFE3275:
	.size	_ZN6tflite26CalculateShapeForBroadcastEP13TfLiteContextPK12TfLiteTensorS4_S4_PP14TfLiteIntArray, .-_ZN6tflite26CalculateShapeForBroadcastEP13TfLiteContextPK12TfLiteTensorS4_S4_PP14TfLiteIntArray
	.section	.text._ZN6tflite17TfLiteTypeGetSizeE10TfLiteType,"ax",%progbits
	.align	1
	.global	_ZN6tflite17TfLiteTypeGetSizeE10TfLiteType
	.syntax unified
	.thumb
	.thumb_func
	.type	_ZN6tflite17TfLiteTypeGetSizeE10TfLiteType, %function
_ZN6tflite17TfLiteTypeGetSizeE10TfLiteType:
.LFB3276:
	.loc 5 524 40
	@ args = 0, pretend = 0, frame = 8
	@ frame_needed = 0, uses_anonymous_args = 0
	@ link register save eliminated.
	sub	sp, sp, #8
.LCFI98:
	mov	r3, r0
	strb	r3, [sp, #7]
	.loc 5 525 11
	ldrb	r3, [sp, #7]	@ zero_extendqisi2
	.loc 5 525 3
	subs	r3, r3, #1
	cmp	r3, #16
	bhi	.L578
	adr	r2, .L580
	ldr	pc, [r2, r3, lsl #2]
	.p2align 2
.L580:
	.word	.L593+1
	.word	.L592+1
	.word	.L591+1
	.word	.L590+1
	.word	.L578+1
	.word	.L589+1
	.word	.L588+1
	.word	.L587+1
	.word	.L586+1
	.word	.L585+1
	.word	.L584+1
	.word	.L583+1
	.word	.L582+1
	.word	.L578+1
	.word	.L578+1
	.word	.L581+1
	.word	.L579+1
	.p2align 1
.L591:
	.loc 5 528 14
	movs	r3, #1
	b	.L594
.L586:
	.loc 5 531 14
	movs	r3, #1
	b	.L594
.L589:
	.loc 5 533 25
	movs	r3, #1
	b	.L594
.L579:
	.loc 5 536 14
	movs	r3, #2
	b	.L594
.L588:
	.loc 5 539 14
	movs	r3, #2
	b	.L594
.L585:
	.loc 5 542 14
	movs	r3, #2
	b	.L594
.L593:
	.loc 5 545 14
	movs	r3, #4
	b	.L594
.L592:
	.loc 5 548 14
	movs	r3, #4
	b	.L594
.L581:
	.loc 5 551 14
	movs	r3, #4
	b	.L594
.L590:
	.loc 5 554 14
	movs	r3, #8
	b	.L594
.L582:
	.loc 5 557 14
	movs	r3, #8
	b	.L594
.L584:
	.loc 5 560 14
	movs	r3, #8
	b	.L594
.L587:
	.loc 5 563 14
	movs	r3, #8
	b	.L594
.L583:
	.loc 5 566 14
	movs	r3, #16
	b	.L594
.L578:
	.loc 5 568 14
	movs	r3, #0
.L594:
	.loc 5 570 1
	mov	r0, r3
	add	sp, sp, #8
.LCFI99:
	@ sp needed
	bx	lr
.LFE3276:
	.size	_ZN6tflite17TfLiteTypeGetSizeE10TfLiteType, .-_ZN6tflite17TfLiteTypeGetSizeE10TfLiteType
	.section	.text._ZN6tflite16IsMobilePlatformEv,"ax",%progbits
	.align	1
	.global	_ZN6tflite16IsMobilePlatformEv
	.syntax unified
	.thumb
	.thumb_func
	.type	_ZN6tflite16IsMobilePlatformEv, %function
_ZN6tflite16IsMobilePlatformEv:
.LFB3277:
	.loc 5 572 25
	@ args = 0, pretend = 0, frame = 0
	@ frame_needed = 0, uses_anonymous_args = 0
	@ link register save eliminated.
	.loc 5 580 10
	movs	r3, #0
	.loc 5 581 1
	mov	r0, r3
	bx	lr
.LFE3277:
	.size	_ZN6tflite16IsMobilePlatformEv, .-_ZN6tflite16IsMobilePlatformEv
	.section	.text._ZN6tflite23HasUnspecifiedDimensionEPK12TfLiteTensor,"ax",%progbits
	.align	1
	.global	_ZN6tflite23HasUnspecifiedDimensionEPK12TfLiteTensor
	.syntax unified
	.thumb
	.thumb_func
	.type	_ZN6tflite23HasUnspecifiedDimensionEPK12TfLiteTensor, %function
_ZN6tflite23HasUnspecifiedDimensionEPK12TfLiteTensor:
.LFB3278:
	.loc 5 583 58
	@ args = 0, pretend = 0, frame = 32
	@ frame_needed = 0, uses_anonymous_args = 0
	push	{lr}
.LCFI100:
	sub	sp, sp, #36
.LCFI101:
	str	r0, [sp, #4]
.LBB2062:
	.loc 5 585 15
	ldr	r3, [sp, #4]
	ldr	r3, [r3, #60]
	.loc 5 585 3
	cmp	r3, #0
	beq	.L598
.LBB2063:
.LBB2064:
	.loc 5 586 45
	ldr	r3, [sp, #4]
	ldr	r2, [r3, #60]
	.loc 5 586 59
	add	r3, sp, #12
	mov	r1, r2
	mov	r0, r3
	bl	_ZN6tflite18TfLiteIntArrayViewC1EPK14TfLiteIntArray
	add	r3, sp, #12
	str	r3, [sp, #24]
	ldr	r0, [sp, #24]
	bl	_ZNK6tflite18TfLiteIntArrayView5beginEv
	str	r0, [sp, #28]
	ldr	r0, [sp, #24]
	bl	_ZNK6tflite18TfLiteIntArrayView3endEv
	str	r0, [sp, #20]
	.loc 5 586 5
	b	.L599
.L602:
	.loc 5 586 14 discriminator 3
	ldr	r3, [sp, #28]
	ldr	r3, [r3]
	str	r3, [sp, #16]
	.loc 5 587 7 discriminator 3
	ldr	r3, [sp, #16]
	cmp	r3, #-1
	bne	.L600
	.loc 5 587 27 discriminator 1
	movs	r3, #1
	b	.L601
.L600:
	.loc 5 586 5 discriminator 2
	ldr	r3, [sp, #28]
	adds	r3, r3, #4
	str	r3, [sp, #28]
.L599:
	.loc 5 586 59 discriminator 1
	ldr	r2, [sp, #28]
	ldr	r3, [sp, #20]
	cmp	r2, r3
	bne	.L602
.L598:
.LBE2064:
.LBE2063:
.LBE2062:
	.loc 5 591 10
	movs	r3, #0
.L601:
	.loc 5 592 1
	mov	r0, r3
	add	sp, sp, #36
.LCFI102:
	@ sp needed
	ldr	pc, [sp], #4
.LFE3278:
	.size	_ZN6tflite23HasUnspecifiedDimensionEPK12TfLiteTensor, .-_ZN6tflite23HasUnspecifiedDimensionEPK12TfLiteTensor
	.section	.text._ZN6tflite11TfLiteRoundIfEET_S1_,"axG",%progbits,_ZN6tflite11TfLiteRoundIfEET_S1_,comdat
	.align	1
	.weak	_ZN6tflite11TfLiteRoundIfEET_S1_
	.syntax unified
	.thumb
	.thumb_func
	.type	_ZN6tflite11TfLiteRoundIfEET_S1_, %function
_ZN6tflite11TfLiteRoundIfEET_S1_:
.LFB3342:
	.file 12 "C:/TensorFlow/tflite-micro/tensorflow/lite/kernels/internal/cppmath.h"
	.loc 12 35 1
	@ args = 0, pretend = 0, frame = 16
	@ frame_needed = 0, uses_anonymous_args = 0
	push	{lr}
.LCFI103:
	sub	sp, sp, #20
.LCFI104:
	vstr.32	s0, [sp, #4]
	ldr	r3, [sp, #4]	@ float
	str	r3, [sp, #12]	@ float
.LBB2065:
.LBB2066:
	.loc 6 1512 100
	vldr.32	s0, [sp, #12]
	bl	roundf
	vmov.f32	s15, s0
	.loc 6 1512 109
	nop
.LBE2066:
.LBE2065:
	.loc 12 35 1
	vmov.f32	s0, s15
	add	sp, sp, #20
.LCFI105:
	@ sp needed
	ldr	pc, [sp], #4
.LFE3342:
	.size	_ZN6tflite11TfLiteRoundIfEET_S1_, .-_ZN6tflite11TfLiteRoundIfEET_S1_
	.section	.debug_frame,"",%progbits
.Lframe0:
	.4byte	.LECIE0-.LSCIE0
.LSCIE0:
	.4byte	0xffffffff
	.byte	0x3
	.ascii	"\000"
	.uleb128 0x1
	.sleb128 -4
	.uleb128 0xe
	.byte	0xc
	.uleb128 0xd
	.uleb128 0
	.align	2
.LECIE0:
.LSFDE0:
	.4byte	.LEFDE0-.LASFDE0
.LASFDE0:
	.4byte	.Lframe0
	.4byte	.LFB489
	.4byte	.LFE489-.LFB489
	.byte	0x4
	.4byte	.LCFI0-.LFB489
	.byte	0xe
	.uleb128 0x4
	.byte	0x8e
	.uleb128 0x1
	.byte	0x4
	.4byte	.LCFI1-.LCFI0
	.byte	0xe
	.uleb128 0x10
	.byte	0x4
	.4byte	.LCFI2-.LCFI1
	.byte	0xe
	.uleb128 0x4
	.align	2
.LEFDE0:
.LSFDE2:
	.4byte	.LEFDE2-.LASFDE2
.LASFDE2:
	.4byte	.Lframe0
	.4byte	.LFB492
	.4byte	.LFE492-.LFB492
	.byte	0x4
	.4byte	.LCFI3-.LFB492
	.byte	0xe
	.uleb128 0x4
	.byte	0x8e
	.uleb128 0x1
	.byte	0x4
	.4byte	.LCFI4-.LCFI3
	.byte	0xe
	.uleb128 0x10
	.byte	0x4
	.4byte	.LCFI5-.LCFI4
	.byte	0xe
	.uleb128 0x4
	.align	2
.LEFDE2:
.LSFDE4:
	.4byte	.LEFDE4-.LASFDE4
.LASFDE4:
	.4byte	.Lframe0
	.4byte	.LFB1597
	.4byte	.LFE1597-.LFB1597
	.byte	0x4
	.4byte	.LCFI6-.LFB1597
	.byte	0xe
	.uleb128 0x8
	.byte	0x4
	.4byte	.LCFI7-.LCFI6
	.byte	0xe
	.uleb128 0
	.align	2
.LEFDE4:
.LSFDE6:
	.4byte	.LEFDE6-.LASFDE6
.LASFDE6:
	.4byte	.Lframe0
	.4byte	.LFB1995
	.4byte	.LFE1995-.LFB1995
	.byte	0x4
	.4byte	.LCFI8-.LFB1995
	.byte	0xe
	.uleb128 0x8
	.byte	0x4
	.4byte	.LCFI9-.LCFI8
	.byte	0xe
	.uleb128 0
	.align	2
.LEFDE6:
.LSFDE8:
	.4byte	.LEFDE8-.LASFDE8
.LASFDE8:
	.4byte	.Lframe0
	.4byte	.LFB1996
	.4byte	.LFE1996-.LFB1996
	.byte	0x4
	.4byte	.LCFI10-.LFB1996
	.byte	0xe
	.uleb128 0x8
	.byte	0x4
	.4byte	.LCFI11-.LCFI10
	.byte	0xe
	.uleb128 0
	.align	2
.LEFDE8:
.LSFDE10:
	.4byte	.LEFDE10-.LASFDE10
.LASFDE10:
	.4byte	.Lframe0
	.4byte	.LFB3150
	.4byte	.LFE3150-.LFB3150
	.byte	0x4
	.4byte	.LCFI12-.LFB3150
	.byte	0xe
	.uleb128 0x8
	.byte	0x4
	.4byte	.LCFI13-.LCFI12
	.byte	0xe
	.uleb128 0
	.align	2
.LEFDE10:
.LSFDE12:
	.4byte	.LEFDE12-.LASFDE12
.LASFDE12:
	.4byte	.Lframe0
	.4byte	.LFB3152
	.4byte	.LFE3152-.LFB3152
	.byte	0x4
	.4byte	.LCFI14-.LFB3152
	.byte	0xe
	.uleb128 0x8
	.byte	0x4
	.4byte	.LCFI15-.LCFI14
	.byte	0xe
	.uleb128 0
	.align	2
.LEFDE12:
.LSFDE14:
	.4byte	.LEFDE14-.LASFDE14
.LASFDE14:
	.4byte	.Lframe0
	.4byte	.LFB3153
	.4byte	.LFE3153-.LFB3153
	.byte	0x4
	.4byte	.LCFI16-.LFB3153
	.byte	0xe
	.uleb128 0x8
	.byte	0x4
	.4byte	.LCFI17-.LCFI16
	.byte	0xe
	.uleb128 0
	.align	2
.LEFDE14:
.LSFDE16:
	.4byte	.LEFDE16-.LASFDE16
.LASFDE16:
	.4byte	.Lframe0
	.4byte	.LFB3235
	.4byte	.LFE3235-.LFB3235
	.byte	0x4
	.4byte	.LCFI18-.LFB3235
	.byte	0xe
	.uleb128 0x4
	.byte	0x8e
	.uleb128 0x1
	.byte	0x4
	.4byte	.LCFI19-.LCFI18
	.byte	0xe
	.uleb128 0x10
	.byte	0x4
	.4byte	.LCFI20-.LCFI19
	.byte	0xe
	.uleb128 0x4
	.align	2
.LEFDE16:
.LSFDE18:
	.4byte	.LEFDE18-.LASFDE18
.LASFDE18:
	.4byte	.Lframe0
	.4byte	.LFB3236
	.4byte	.LFE3236-.LFB3236
	.byte	0x4
	.4byte	.LCFI21-.LFB3236
	.byte	0xe
	.uleb128 0x8
	.byte	0x84
	.uleb128 0x2
	.byte	0x8e
	.uleb128 0x1
	.byte	0x4
	.4byte	.LCFI22-.LCFI21
	.byte	0xe
	.uleb128 0x18
	.byte	0x4
	.4byte	.LCFI23-.LCFI22
	.byte	0xe
	.uleb128 0x8
	.align	2
.LEFDE18:
.LSFDE20:
	.4byte	.LEFDE20-.LASFDE20
.LASFDE20:
	.4byte	.Lframe0
	.4byte	.LFB3237
	.4byte	.LFE3237-.LFB3237
	.byte	0x4
	.4byte	.LCFI24-.LFB3237
	.byte	0xe
	.uleb128 0x18
	.byte	0x4
	.4byte	.LCFI25-.LCFI24
	.byte	0xe
	.uleb128 0
	.align	2
.LEFDE20:
.LSFDE22:
	.4byte	.LEFDE22-.LASFDE22
.LASFDE22:
	.4byte	.Lframe0
	.4byte	.LFB3238
	.4byte	.LFE3238-.LFB3238
	.byte	0x4
	.4byte	.LCFI26-.LFB3238
	.byte	0xe
	.uleb128 0x4
	.byte	0x8e
	.uleb128 0x1
	.byte	0x4
	.4byte	.LCFI27-.LCFI26
	.byte	0xe
	.uleb128 0x20
	.byte	0x4
	.4byte	.LCFI28-.LCFI27
	.byte	0xe
	.uleb128 0x4
	.align	2
.LEFDE22:
.LSFDE24:
	.4byte	.LEFDE24-.LASFDE24
.LASFDE24:
	.4byte	.Lframe0
	.4byte	.LFB3239
	.4byte	.LFE3239-.LFB3239
	.byte	0x4
	.4byte	.LCFI29-.LFB3239
	.byte	0xe
	.uleb128 0x4
	.byte	0x8e
	.uleb128 0x1
	.byte	0x4
	.4byte	.LCFI30-.LCFI29
	.byte	0xe
	.uleb128 0x28
	.byte	0x4
	.4byte	.LCFI31-.LCFI30
	.byte	0xe
	.uleb128 0x4
	.align	2
.LEFDE24:
.LSFDE26:
	.4byte	.LEFDE26-.LASFDE26
.LASFDE26:
	.4byte	.Lframe0
	.4byte	.LFB3240
	.4byte	.LFE3240-.LFB3240
	.byte	0x4
	.4byte	.LCFI32-.LFB3240
	.byte	0xe
	.uleb128 0x4
	.byte	0x8e
	.uleb128 0x1
	.byte	0x4
	.4byte	.LCFI33-.LCFI32
	.byte	0xe
	.uleb128 0x18
	.byte	0x4
	.4byte	.LCFI34-.LCFI33
	.byte	0xe
	.uleb128 0x4
	.align	2
.LEFDE26:
.LSFDE28:
	.4byte	.LEFDE28-.LASFDE28
.LASFDE28:
	.4byte	.Lframe0
	.4byte	.LFB3241
	.4byte	.LFE3241-.LFB3241
	.byte	0x4
	.4byte	.LCFI35-.LFB3241
	.byte	0xe
	.uleb128 0x4
	.byte	0x8e
	.uleb128 0x1
	.byte	0x4
	.4byte	.LCFI36-.LCFI35
	.byte	0xe
	.uleb128 0x18
	.byte	0x4
	.4byte	.LCFI37-.LCFI36
	.byte	0xe
	.uleb128 0x4
	.align	2
.LEFDE28:
.LSFDE30:
	.4byte	.LEFDE30-.LASFDE30
.LASFDE30:
	.4byte	.Lframe0
	.4byte	.LFB3242
	.4byte	.LFE3242-.LFB3242
	.byte	0x4
	.4byte	.LCFI38-.LFB3242
	.byte	0xe
	.uleb128 0x4
	.byte	0x8e
	.uleb128 0x1
	.byte	0x4
	.4byte	.LCFI39-.LCFI38
	.byte	0xe
	.uleb128 0x20
	.byte	0x4
	.4byte	.LCFI40-.LCFI39
	.byte	0xe
	.uleb128 0x4
	.align	2
.LEFDE30:
.LSFDE32:
	.4byte	.LEFDE32-.LASFDE32
.LASFDE32:
	.4byte	.Lframe0
	.4byte	.LFB3243
	.4byte	.LFE3243-.LFB3243
	.byte	0x4
	.4byte	.LCFI41-.LFB3243
	.byte	0xe
	.uleb128 0x4
	.byte	0x8e
	.uleb128 0x1
	.byte	0x4
	.4byte	.LCFI42-.LCFI41
	.byte	0xe
	.uleb128 0x20
	.byte	0x4
	.4byte	.LCFI43-.LCFI42
	.byte	0xe
	.uleb128 0x4
	.align	2
.LEFDE32:
.LSFDE34:
	.4byte	.LEFDE34-.LASFDE34
.LASFDE34:
	.4byte	.Lframe0
	.4byte	.LFB3244
	.4byte	.LFE3244-.LFB3244
	.byte	0x4
	.4byte	.LCFI44-.LFB3244
	.byte	0xe
	.uleb128 0x4
	.byte	0x8e
	.uleb128 0x1
	.byte	0x4
	.4byte	.LCFI45-.LCFI44
	.byte	0xe
	.uleb128 0x28
	.byte	0x4
	.4byte	.LCFI46-.LCFI45
	.byte	0xe
	.uleb128 0x4
	.align	2
.LEFDE34:
.LSFDE36:
	.4byte	.LEFDE36-.LASFDE36
.LASFDE36:
	.4byte	.Lframe0
	.4byte	.LFB3245
	.4byte	.LFE3245-.LFB3245
	.byte	0x4
	.4byte	.LCFI47-.LFB3245
	.byte	0xe
	.uleb128 0x4
	.byte	0x8e
	.uleb128 0x1
	.byte	0x4
	.4byte	.LCFI48-.LCFI47
	.byte	0xe
	.uleb128 0x18
	.byte	0x4
	.4byte	.LCFI49-.LCFI48
	.byte	0xe
	.uleb128 0x4
	.align	2
.LEFDE36:
.LSFDE38:
	.4byte	.LEFDE38-.LASFDE38
.LASFDE38:
	.4byte	.Lframe0
	.4byte	.LFB3246
	.4byte	.LFE3246-.LFB3246
	.byte	0x4
	.4byte	.LCFI50-.LFB3246
	.byte	0xe
	.uleb128 0x4
	.byte	0x8e
	.uleb128 0x1
	.byte	0x4
	.4byte	.LCFI51-.LCFI50
	.byte	0xe
	.uleb128 0x20
	.byte	0x4
	.4byte	.LCFI52-.LCFI51
	.byte	0xe
	.uleb128 0x4
	.align	2
.LEFDE38:
.LSFDE40:
	.4byte	.LEFDE40-.LASFDE40
.LASFDE40:
	.4byte	.Lframe0
	.4byte	.LFB3247
	.4byte	.LFE3247-.LFB3247
	.byte	0x4
	.4byte	.LCFI53-.LFB3247
	.byte	0xe
	.uleb128 0x4
	.byte	0x8e
	.uleb128 0x1
	.byte	0x4
	.4byte	.LCFI54-.LCFI53
	.byte	0xe
	.uleb128 0x28
	.byte	0x4
	.4byte	.LCFI55-.LCFI54
	.byte	0xe
	.uleb128 0x4
	.align	2
.LEFDE40:
.LSFDE42:
	.4byte	.LEFDE42-.LASFDE42
.LASFDE42:
	.4byte	.Lframe0
	.4byte	.LFB3248
	.4byte	.LFE3248-.LFB3248
	.byte	0x4
	.4byte	.LCFI56-.LFB3248
	.byte	0xe
	.uleb128 0x4
	.byte	0x8e
	.uleb128 0x1
	.byte	0x4
	.4byte	.LCFI57-.LCFI56
	.byte	0xe
	.uleb128 0x20
	.byte	0x4
	.4byte	.LCFI58-.LCFI57
	.byte	0xe
	.uleb128 0x4
	.align	2
.LEFDE42:
.LSFDE44:
	.4byte	.LEFDE44-.LASFDE44
.LASFDE44:
	.4byte	.Lframe0
	.4byte	.LFB3249
	.4byte	.LFE3249-.LFB3249
	.byte	0x4
	.4byte	.LCFI59-.LFB3249
	.byte	0xe
	.uleb128 0x4
	.byte	0x8e
	.uleb128 0x1
	.byte	0x4
	.4byte	.LCFI60-.LCFI59
	.byte	0xe
	.uleb128 0x28
	.byte	0x4
	.4byte	.LCFI61-.LCFI60
	.byte	0xe
	.uleb128 0x4
	.align	2
.LEFDE44:
.LSFDE46:
	.4byte	.LEFDE46-.LASFDE46
.LASFDE46:
	.4byte	.Lframe0
	.4byte	.LFB3250
	.4byte	.LFE3250-.LFB3250
	.byte	0x4
	.4byte	.LCFI62-.LFB3250
	.byte	0xe
	.uleb128 0x4
	.byte	0x8e
	.uleb128 0x1
	.byte	0x4
	.4byte	.LCFI63-.LCFI62
	.byte	0xe
	.uleb128 0x48
	.byte	0x4
	.4byte	.LCFI64-.LCFI63
	.byte	0xe
	.uleb128 0x4
	.align	2
.LEFDE46:
.LSFDE48:
	.4byte	.LEFDE48-.LASFDE48
.LASFDE48:
	.4byte	.Lframe0
	.4byte	.LFB3251
	.4byte	.LFE3251-.LFB3251
	.byte	0x4
	.4byte	.LCFI65-.LFB3251
	.byte	0xe
	.uleb128 0xc
	.byte	0x84
	.uleb128 0x3
	.byte	0x85
	.uleb128 0x2
	.byte	0x8e
	.uleb128 0x1
	.byte	0x4
	.4byte	.LCFI66-.LCFI65
	.byte	0xe
	.uleb128 0x78
	.byte	0x4
	.4byte	.LCFI67-.LCFI66
	.byte	0xe
	.uleb128 0xc
	.align	2
.LEFDE48:
.LSFDE50:
	.4byte	.LEFDE50-.LASFDE50
.LASFDE50:
	.4byte	.Lframe0
	.4byte	.LFB3252
	.4byte	.LFE3252-.LFB3252
	.byte	0x4
	.4byte	.LCFI68-.LFB3252
	.byte	0xe
	.uleb128 0x14
	.byte	0x84
	.uleb128 0x5
	.byte	0x85
	.uleb128 0x4
	.byte	0x86
	.uleb128 0x3
	.byte	0x87
	.uleb128 0x2
	.byte	0x8e
	.uleb128 0x1
	.byte	0x4
	.4byte	.LCFI69-.LCFI68
	.byte	0xe
	.uleb128 0x58
	.byte	0x4
	.4byte	.LCFI70-.LCFI69
	.byte	0xe
	.uleb128 0x14
	.align	2
.LEFDE50:
.LSFDE52:
	.4byte	.LEFDE52-.LASFDE52
.LASFDE52:
	.4byte	.Lframe0
	.4byte	.LFB3253
	.4byte	.LFE3253-.LFB3253
	.byte	0x4
	.4byte	.LCFI71-.LFB3253
	.byte	0xe
	.uleb128 0x8
	.byte	0x84
	.uleb128 0x2
	.byte	0x8e
	.uleb128 0x1
	.byte	0x4
	.4byte	.LCFI72-.LCFI71
	.byte	0xe
	.uleb128 0x28
	.byte	0x4
	.4byte	.LCFI73-.LCFI72
	.byte	0xe
	.uleb128 0x8
	.align	2
.LEFDE52:
.LSFDE54:
	.4byte	.LEFDE54-.LASFDE54
.LASFDE54:
	.4byte	.Lframe0
	.4byte	.LFB3254
	.4byte	.LFE3254-.LFB3254
	.byte	0x4
	.4byte	.LCFI74-.LFB3254
	.byte	0xe
	.uleb128 0x8
	.byte	0x84
	.uleb128 0x2
	.byte	0x8e
	.uleb128 0x1
	.byte	0x4
	.4byte	.LCFI75-.LCFI74
	.byte	0xe
	.uleb128 0x30
	.byte	0x4
	.4byte	.LCFI76-.LCFI75
	.byte	0xe
	.uleb128 0x8
	.align	2
.LEFDE54:
.LSFDE56:
	.4byte	.LEFDE56-.LASFDE56
.LASFDE56:
	.4byte	.Lframe0
	.4byte	.LFB3257
	.4byte	.LFE3257-.LFB3257
	.byte	0x4
	.4byte	.LCFI77-.LFB3257
	.byte	0xe
	.uleb128 0x18
	.byte	0x84
	.uleb128 0x6
	.byte	0x85
	.uleb128 0x5
	.byte	0x86
	.uleb128 0x4
	.byte	0x87
	.uleb128 0x3
	.byte	0x88
	.uleb128 0x2
	.byte	0x8e
	.uleb128 0x1
	.byte	0x4
	.4byte	.LCFI78-.LCFI77
	.byte	0xe
	.uleb128 0xa0
	.byte	0x4
	.4byte	.LCFI79-.LCFI78
	.byte	0xe
	.uleb128 0x18
	.align	2
.LEFDE56:
.LSFDE58:
	.4byte	.LEFDE58-.LASFDE58
.LASFDE58:
	.4byte	.Lframe0
	.4byte	.LFB3258
	.4byte	.LFE3258-.LFB3258
	.byte	0x4
	.4byte	.LCFI80-.LFB3258
	.byte	0xe
	.uleb128 0x8
	.byte	0x84
	.uleb128 0x2
	.byte	0x8e
	.uleb128 0x1
	.byte	0x4
	.4byte	.LCFI81-.LCFI80
	.byte	0xe
	.uleb128 0x30
	.byte	0x4
	.4byte	.LCFI82-.LCFI81
	.byte	0xe
	.uleb128 0x8
	.align	2
.LEFDE58:
.LSFDE60:
	.4byte	.LEFDE60-.LASFDE60
.LASFDE60:
	.4byte	.Lframe0
	.4byte	.LFB3271
	.4byte	.LFE3271-.LFB3271
	.byte	0x4
	.4byte	.LCFI83-.LFB3271
	.byte	0xe
	.uleb128 0x4
	.byte	0x8e
	.uleb128 0x1
	.byte	0x4
	.4byte	.LCFI84-.LCFI83
	.byte	0xe
	.uleb128 0x10
	.byte	0x4
	.4byte	.LCFI85-.LCFI84
	.byte	0xe
	.uleb128 0x4
	.align	2
.LEFDE60:
.LSFDE62:
	.4byte	.LEFDE62-.LASFDE62
.LASFDE62:
	.4byte	.Lframe0
	.4byte	.LFB3272
	.4byte	.LFE3272-.LFB3272
	.byte	0x4
	.4byte	.LCFI86-.LFB3272
	.byte	0xe
	.uleb128 0x8
	.byte	0x84
	.uleb128 0x2
	.byte	0x8e
	.uleb128 0x1
	.byte	0x4
	.4byte	.LCFI87-.LCFI86
	.byte	0xe
	.uleb128 0xa0
	.byte	0x4
	.4byte	.LCFI88-.LCFI87
	.byte	0xe
	.uleb128 0x8
	.align	2
.LEFDE62:
.LSFDE64:
	.4byte	.LEFDE64-.LASFDE64
.LASFDE64:
	.4byte	.Lframe0
	.4byte	.LFB3273
	.4byte	.LFE3273-.LFB3273
	.byte	0x4
	.4byte	.LCFI89-.LFB3273
	.byte	0xe
	.uleb128 0x14
	.byte	0x84
	.uleb128 0x5
	.byte	0x85
	.uleb128 0x4
	.byte	0x86
	.uleb128 0x3
	.byte	0x87
	.uleb128 0x2
	.byte	0x8e
	.uleb128 0x1
	.byte	0x4
	.4byte	.LCFI90-.LCFI89
	.byte	0xe
	.uleb128 0x290
	.byte	0x4
	.4byte	.LCFI91-.LCFI90
	.byte	0xe
	.uleb128 0x14
	.align	2
.LEFDE64:
.LSFDE66:
	.4byte	.LEFDE66-.LASFDE66
.LASFDE66:
	.4byte	.Lframe0
	.4byte	.LFB3274
	.4byte	.LFE3274-.LFB3274
	.byte	0x4
	.4byte	.LCFI92-.LFB3274
	.byte	0xe
	.uleb128 0x10
	.byte	0x84
	.uleb128 0x4
	.byte	0x85
	.uleb128 0x3
	.byte	0x86
	.uleb128 0x2
	.byte	0x8e
	.uleb128 0x1
	.byte	0x4
	.4byte	.LCFI93-.LCFI92
	.byte	0xe
	.uleb128 0x170
	.byte	0x4
	.4byte	.LCFI94-.LCFI93
	.byte	0xe
	.uleb128 0x10
	.align	2
.LEFDE66:
.LSFDE68:
	.4byte	.LEFDE68-.LASFDE68
.LASFDE68:
	.4byte	.Lframe0
	.4byte	.LFB3275
	.4byte	.LFE3275-.LFB3275
	.byte	0x4
	.4byte	.LCFI95-.LFB3275
	.byte	0xe
	.uleb128 0x20
	.byte	0x84
	.uleb128 0x8
	.byte	0x85
	.uleb128 0x7
	.byte	0x86
	.uleb128 0x6
	.byte	0x87
	.uleb128 0x5
	.byte	0x88
	.uleb128 0x4
	.byte	0x89
	.uleb128 0x3
	.byte	0x8a
	.uleb128 0x2
	.byte	0x8e
	.uleb128 0x1
	.byte	0x4
	.4byte	.LCFI96-.LCFI95
	.byte	0xe
	.uleb128 0x230
	.byte	0x4
	.4byte	.LCFI97-.LCFI96
	.byte	0xe
	.uleb128 0x20
	.align	2
.LEFDE68:
.LSFDE70:
	.4byte	.LEFDE70-.LASFDE70
.LASFDE70:
	.4byte	.Lframe0
	.4byte	.LFB3276
	.4byte	.LFE3276-.LFB3276
	.byte	0x4
	.4byte	.LCFI98-.LFB3276
	.byte	0xe
	.uleb128 0x8
	.byte	0x4
	.4byte	.LCFI99-.LCFI98
	.byte	0xe
	.uleb128 0
	.align	2
.LEFDE70:
.LSFDE72:
	.4byte	.LEFDE72-.LASFDE72
.LASFDE72:
	.4byte	.Lframe0
	.4byte	.LFB3277
	.4byte	.LFE3277-.LFB3277
	.align	2
.LEFDE72:
.LSFDE74:
	.4byte	.LEFDE74-.LASFDE74
.LASFDE74:
	.4byte	.Lframe0
	.4byte	.LFB3278
	.4byte	.LFE3278-.LFB3278
	.byte	0x4
	.4byte	.LCFI100-.LFB3278
	.byte	0xe
	.uleb128 0x4
	.byte	0x8e
	.uleb128 0x1
	.byte	0x4
	.4byte	.LCFI101-.LCFI100
	.byte	0xe
	.uleb128 0x28
	.byte	0x4
	.4byte	.LCFI102-.LCFI101
	.byte	0xe
	.uleb128 0x4
	.align	2
.LEFDE74:
.LSFDE76:
	.4byte	.LEFDE76-.LASFDE76
.LASFDE76:
	.4byte	.Lframe0
	.4byte	.LFB3342
	.4byte	.LFE3342-.LFB3342
	.byte	0x4
	.4byte	.LCFI103-.LFB3342
	.byte	0xe
	.uleb128 0x4
	.byte	0x8e
	.uleb128 0x1
	.byte	0x4
	.4byte	.LCFI104-.LCFI103
	.byte	0xe
	.uleb128 0x18
	.byte	0x4
	.4byte	.LCFI105-.LCFI104
	.byte	0xe
	.uleb128 0x4
	.align	2
.LEFDE76:
	.text
.Letext0:
	.file 13 "C:/Program Files/SEGGER/SEGGER Embedded Studio for ARM 7.10a/source/libcxx/include/cstddef"
	.file 14 "C:/Program Files/SEGGER/SEGGER Embedded Studio for ARM 7.10a/source/libcxx/include/cstring"
	.file 15 "C:/Program Files/SEGGER/SEGGER Embedded Studio for ARM 7.10a/source/libcxx/include/cstdint"
	.file 16 "C:/Program Files/SEGGER/SEGGER Embedded Studio for ARM 7.10a/source/libcxx/include/iosfwd"
	.file 17 "C:/Program Files/SEGGER/SEGGER Embedded Studio for ARM 7.10a/source/libcxx/include/utility"
	.file 18 "C:/Program Files/SEGGER/SEGGER Embedded Studio for ARM 7.10a/source/libcxx/include/cstdlib"
	.file 19 "C:/Program Files/SEGGER/SEGGER Embedded Studio for ARM 7.10a/source/libcxx/include/__functional_base"
	.file 20 "C:/Program Files/SEGGER/SEGGER Embedded Studio for ARM 7.10a/source/libcxx/include/tuple"
	.file 21 "C:/Program Files/SEGGER/SEGGER Embedded Studio for ARM 7.10a/source/libcxx/include/functional"
	.file 22 "C:/Program Files/SEGGER/SEGGER Embedded Studio for ARM 7.10a/source/libcxx/include/cstdio"
	.file 23 "C:/Program Files/SEGGER/SEGGER Embedded Studio for ARM 7.10a/source/libcxx/include/cwctype"
	.file 24 "C:/Program Files/SEGGER/SEGGER Embedded Studio for ARM 7.10a/source/libcxx/include/cwchar"
	.file 25 "C:/Program Files/SEGGER/SEGGER Embedded Studio for ARM 7.10a/source/libcxx/include/string_view"
	.file 26 "C:/Program Files/SEGGER/SEGGER Embedded Studio for ARM 7.10a/source/libcxx/include/iterator"
	.file 27 "C:/Program Files/SEGGER/SEGGER Embedded Studio for ARM 7.10a/source/libcxx/include/cmath"
	.file 28 "C:/Program Files/SEGGER/SEGGER Embedded Studio for ARM 7.10a/source/libcxx/include/ctime"
	.file 29 "C:/Program Files/SEGGER/SEGGER Embedded Studio for ARM 7.10a/source/libcxx/include/chrono"
	.file 30 "C:/Program Files/SEGGER/SEGGER Embedded Studio for ARM 7.10a/source/libcxx/include/ratio"
	.file 31 "C:/Program Files/SEGGER/SEGGER Embedded Studio for ARM 7.10a/source/libcxx/include/cstdarg"
	.file 32 "C:/Program Files/SEGGER/SEGGER Embedded Studio for ARM 7.10a/source/libcxx/include/__config"
	.file 33 "C:/Program Files/SEGGER/SEGGER Embedded Studio for ARM 7.10a/source/libcxx/include/__nullptr"
	.file 34 "C:/Program Files/SEGGER/SEGGER Embedded Studio for ARM 7.10a/source/libcxx/include/initializer_list"
	.file 35 "C:/Program Files/SEGGER/SEGGER Embedded Studio for ARM 7.10a/include/stdint.h"
	.file 36 "C:/Program Files/SEGGER/SEGGER Embedded Studio for ARM 7.10a/include/stddef.h"
	.file 37 "C:/Program Files/SEGGER/SEGGER Embedded Studio for ARM 7.10a/include/string.h"
	.file 38 "C:/Program Files/SEGGER/SEGGER Embedded Studio for ARM 7.10a/include/wchar.h"
	.file 39 "C:/Program Files/SEGGER/SEGGER Embedded Studio for ARM 7.10a/include/stdlib.h"
	.file 40 "C:/Program Files/SEGGER/SEGGER Embedded Studio for ARM 7.10a/include/math.h"
	.file 41 "C:/Program Files/SEGGER/SEGGER Embedded Studio for ARM 7.10a/include/stdio.h"
	.file 42 "C:/Program Files/SEGGER/SEGGER Embedded Studio for ARM 7.10a/include/wctype.h"
	.file 43 "C:/Program Files/SEGGER/SEGGER Embedded Studio for ARM 7.10a/include/time.h"
	.file 44 "<built-in>"
	.file 45 "C:/Program Files/SEGGER/SEGGER Embedded Studio for ARM 7.10a/include/stdarg.h"
	.file 46 "C:/Program Files/SEGGER/SEGGER Embedded Studio for ARM 7.10a/source/libcxx/include/stddef.h"
	.file 47 "C:/TensorFlow/tflite-micro/tensorflow/lite/core/c/c_api_types.h"
	.file 48 "C:/TensorFlow/tflite-micro/tensorflow/lite/core/c/common.h"
	.file 49 "C:/TensorFlow/tflite-micro/tensorflow/lite/core/c/builtin_op_data.h"
	.file 50 "C:/Program Files/SEGGER/SEGGER Embedded Studio for ARM 7.10a/source/libcxx/include/errno.h"
	.file 51 "C:/TensorFlow/tflite-micro/tensorflow/lite/kernels/internal/types.h"
	.file 52 "C:/TensorFlow/tflite-micro/tensorflow/lite/kernels/internal/quantization_util.h"