	.cpu cortex-m4
	.arch armv7e-m
	.fpu fpv4-sp-d16
	.eabi_attribute 27, 1
	.eabi_attribute 28, 1
	.eabi_attribute 20, 1
	.eabi_attribute 21, 1
	.eabi_attribute 23, 3
	.eabi_attribute 24, 1
	.eabi_attribute 25, 1
	.eabi_attribute 26, 1
	.eabi_attribute 30, 6
	.eabi_attribute 34, 1
	.eabi_attribute 38, 1
	.eabi_attribute 18, 4
	.file	"quantization_util.cc"
	.text
.Ltext0:
	.section	.rodata._ZNSt3__1L19piecewise_constructE,"a"
	.align	2
	.type	_ZNSt3__1L19piecewise_constructE, %object
	.size	_ZNSt3__1L19piecewise_constructE, 1
_ZNSt3__1L19piecewise_constructE:
	.space	1
	.section	.rodata._ZNSt3__1L13allocator_argE,"a"
	.align	2
	.type	_ZNSt3__1L13allocator_argE, %object
	.size	_ZNSt3__1L13allocator_argE, 1
_ZNSt3__1L13allocator_argE:
	.space	1
	.section	.rodata._ZNSt3__112_GLOBAL__N_1L6ignoreE,"a"
	.align	2
	.type	_ZNSt3__112_GLOBAL__N_1L6ignoreE, %object
	.size	_ZNSt3__112_GLOBAL__N_1L6ignoreE, 1
_ZNSt3__112_GLOBAL__N_1L6ignoreE:
	.space	1
	.section	.rodata._ZNSt3__112placeholdersL2_1E,"a"
	.align	2
	.type	_ZNSt3__112placeholdersL2_1E, %object
	.size	_ZNSt3__112placeholdersL2_1E, 1
_ZNSt3__112placeholdersL2_1E:
	.space	1
	.section	.rodata._ZNSt3__112placeholdersL2_2E,"a"
	.align	2
	.type	_ZNSt3__112placeholdersL2_2E, %object
	.size	_ZNSt3__112placeholdersL2_2E, 1
_ZNSt3__112placeholdersL2_2E:
	.space	1
	.section	.rodata._ZNSt3__112placeholdersL2_3E,"a"
	.align	2
	.type	_ZNSt3__112placeholdersL2_3E, %object
	.size	_ZNSt3__112placeholdersL2_3E, 1
_ZNSt3__112placeholdersL2_3E:
	.space	1
	.section	.rodata._ZNSt3__112placeholdersL2_4E,"a"
	.align	2
	.type	_ZNSt3__112placeholdersL2_4E, %object
	.size	_ZNSt3__112placeholdersL2_4E, 1
_ZNSt3__112placeholdersL2_4E:
	.space	1
	.section	.rodata._ZNSt3__112placeholdersL2_5E,"a"
	.align	2
	.type	_ZNSt3__112placeholdersL2_5E, %object
	.size	_ZNSt3__112placeholdersL2_5E, 1
_ZNSt3__112placeholdersL2_5E:
	.space	1
	.section	.rodata._ZNSt3__112placeholdersL2_6E,"a"
	.align	2
	.type	_ZNSt3__112placeholdersL2_6E, %object
	.size	_ZNSt3__112placeholdersL2_6E, 1
_ZNSt3__112placeholdersL2_6E:
	.space	1
	.section	.rodata._ZNSt3__112placeholdersL2_7E,"a"
	.align	2
	.type	_ZNSt3__112placeholdersL2_7E, %object
	.size	_ZNSt3__112placeholdersL2_7E, 1
_ZNSt3__112placeholdersL2_7E:
	.space	1
	.section	.rodata._ZNSt3__112placeholdersL2_8E,"a"
	.align	2
	.type	_ZNSt3__112placeholdersL2_8E, %object
	.size	_ZNSt3__112placeholdersL2_8E, 1
_ZNSt3__112placeholdersL2_8E:
	.space	1
	.section	.rodata._ZNSt3__112placeholdersL2_9E,"a"
	.align	2
	.type	_ZNSt3__112placeholdersL2_9E, %object
	.size	_ZNSt3__112placeholdersL2_9E, 1
_ZNSt3__112placeholdersL2_9E:
	.space	1
	.section	.rodata._ZNSt3__112placeholdersL3_10E,"a"
	.align	2
	.type	_ZNSt3__112placeholdersL3_10E, %object
	.size	_ZNSt3__112placeholdersL3_10E, 1
_ZNSt3__112placeholdersL3_10E:
	.space	1
	.section	.rodata._ZN6tfliteL23kTransposeMaxDimensionsE,"a"
	.align	2
	.type	_ZN6tfliteL23kTransposeMaxDimensionsE, %object
	.size	_ZN6tfliteL23kTransposeMaxDimensionsE, 4
_ZN6tfliteL23kTransposeMaxDimensionsE:
	.word	6
	.section	.rodata._ZN6tflite12_GLOBAL__N_1L9kSignMaskE,"a"
	.align	3
	.type	_ZN6tflite12_GLOBAL__N_1L9kSignMaskE, %object
	.size	_ZN6tflite12_GLOBAL__N_1L9kSignMaskE, 8
_ZN6tflite12_GLOBAL__N_1L9kSignMaskE:
	.word	0
	.word	-2147483648
	.section	.rodata._ZN6tflite12_GLOBAL__N_1L13kExponentMaskE,"a"
	.align	3
	.type	_ZN6tflite12_GLOBAL__N_1L13kExponentMaskE, %object
	.size	_ZN6tflite12_GLOBAL__N_1L13kExponentMaskE, 8
_ZN6tflite12_GLOBAL__N_1L13kExponentMaskE:
	.word	0
	.word	2146435072
	.section	.rodata._ZN6tflite12_GLOBAL__N_1L14kExponentShiftE,"a"
	.align	2
	.type	_ZN6tflite12_GLOBAL__N_1L14kExponentShiftE, %object
	.size	_ZN6tflite12_GLOBAL__N_1L14kExponentShiftE, 4
_ZN6tflite12_GLOBAL__N_1L14kExponentShiftE:
	.word	52
	.section	.rodata._ZN6tflite12_GLOBAL__N_1L13kExponentBiasE,"a"
	.align	2
	.type	_ZN6tflite12_GLOBAL__N_1L13kExponentBiasE, %object
	.size	_ZN6tflite12_GLOBAL__N_1L13kExponentBiasE, 4
_ZN6tflite12_GLOBAL__N_1L13kExponentBiasE:
	.word	1023
	.section	.rodata._ZN6tflite12_GLOBAL__N_1L17kExponentIsBadNumE,"a"
	.align	2
	.type	_ZN6tflite12_GLOBAL__N_1L17kExponentIsBadNumE, %object
	.size	_ZN6tflite12_GLOBAL__N_1L17kExponentIsBadNumE, 4
_ZN6tflite12_GLOBAL__N_1L17kExponentIsBadNumE:
	.word	2047
	.section	.rodata._ZN6tflite12_GLOBAL__N_1L13kFractionMaskE,"a"
	.align	3
	.type	_ZN6tflite12_GLOBAL__N_1L13kFractionMaskE, %object
	.size	_ZN6tflite12_GLOBAL__N_1L13kFractionMaskE, 8
_ZN6tflite12_GLOBAL__N_1L13kFractionMaskE:
	.word	-4194304
	.word	1048575
	.section	.rodata._ZN6tflite12_GLOBAL__N_1L14kFractionShiftE,"a"
	.align	2
	.type	_ZN6tflite12_GLOBAL__N_1L14kFractionShiftE, %object
	.size	_ZN6tflite12_GLOBAL__N_1L14kFractionShiftE, 4
_ZN6tflite12_GLOBAL__N_1L14kFractionShiftE:
	.word	22
	.section	.rodata._ZN6tflite12_GLOBAL__N_1L21kFractionRoundingMaskE,"a"
	.align	2
	.type	_ZN6tflite12_GLOBAL__N_1L21kFractionRoundingMaskE, %object
	.size	_ZN6tflite12_GLOBAL__N_1L21kFractionRoundingMaskE, 4
_ZN6tflite12_GLOBAL__N_1L21kFractionRoundingMaskE:
	.word	4194303
	.section	.rodata._ZN6tflite12_GLOBAL__N_1L26kFractionRoundingThresholdE,"a"
	.align	2
	.type	_ZN6tflite12_GLOBAL__N_1L26kFractionRoundingThresholdE, %object
	.size	_ZN6tflite12_GLOBAL__N_1L26kFractionRoundingThresholdE, 4
_ZN6tflite12_GLOBAL__N_1L26kFractionRoundingThresholdE:
	.word	2097152
	.global	__aeabi_dcmpeq
	.global	__aeabi_dmul
	.global	__aeabi_d2lz
	.section	.text._ZN6tflite18QuantizeMultiplierEdPiS0_,"ax",%progbits
	.align	1
	.global	_ZN6tflite18QuantizeMultiplierEdPiS0_
	.syntax unified
	.thumb
	.thumb_func
	.type	_ZN6tflite18QuantizeMultiplierEdPiS0_, %function
_ZN6tflite18QuantizeMultiplierEdPiS0_:
.LFB1667:
	.file 1 "C:\\TensorFlow\\tflite-micro\\tensorflow\\lite\\kernels\\internal\\quantization_util.cc"
	.loc 1 54 37
	@ args = 0, pretend = 0, frame = 32
	@ frame_needed = 0, uses_anonymous_args = 0
	push	{r4, r5, r6, r7, r8, r9, lr}
.LCFI0:
	sub	sp, sp, #36
.LCFI1:
	vstr.64	d0, [sp, #8]
	str	r0, [sp, #4]
	str	r1, [sp]
	.loc 1 60 3
	mov	r2, #0
	mov	r3, #0
	ldrd	r0, [sp, #8]
	bl	__aeabi_dcmpeq
	mov	r3, r0
	cmp	r3, #0
	beq	.L12
	.loc 1 61 27
	ldr	r3, [sp, #4]
	movs	r2, #0
	str	r2, [r3]
	.loc 1 62 12
	ldr	r3, [sp]
	movs	r2, #0
	str	r2, [r3]
	.loc 1 63 5
	b	.L1
.L12:
	.loc 1 72 30
	ldr	r0, [sp]
	vldr.64	d0, [sp, #8]
	bl	frexp
	vstr.64	d0, [sp, #16]
	.loc 1 73 50
	mov	r2, #0
	ldr	r3, .L13
	ldrd	r0, [sp, #16]
	bl	__aeabi_dmul
	mov	r2, r0
	mov	r3, r1
	vmov	d7, r2, r3
	vmov.f32	s0, s14
	vmov.f32	s1, s15
	bl	_ZN6tflite11TfLiteRoundIdEET_S1_
	vmov	r2, r3, d0
	.loc 1 73 67
	mov	r0, r2
	mov	r1, r3
	bl	__aeabi_d2lz
	mov	r2, r0
	mov	r3, r1
	strd	r2, [sp, #24]
	.loc 1 75 3
	ldrd	r2, [sp, #24]
	ldr	r1, .L13+4
	cmp	r2, r1
	sbcs	r3, r3, #0
	blt	.L5
	.loc 1 75 3 is_stmt 0 discriminator 1
	bl	abort
.L5:
	.loc 1 76 3 is_stmt 1
	ldrd	r2, [sp, #24]
	add	r1, r2, #-2147483648
	orrs	r3, r3, r1
	bne	.L6
	.loc 1 77 13
	ldrd	r2, [sp, #24]
	lsrs	r1, r3, #31
	movs	r0, #0
	mov	r8, r1
	mov	r9, r0
	adds	r4, r8, r2
	adc	r5, r9, r3
	mov	r2, #0
	mov	r3, #0
	lsrs	r2, r4, #1
	orr	r2, r2, r5, lsl #31
	asrs	r3, r5, #1
	strd	r2, [sp, #24]
	.loc 1 78 7
	ldr	r3, [sp]
	ldr	r3, [r3]
	.loc 1 78 5
	adds	r2, r3, #1
	ldr	r3, [sp]
	str	r2, [r3]
.L6:
.LBB110:
.LBB111:
.LBB112:
.LBB113:
	.file 2 "C:/Program Files/SEGGER/SEGGER Embedded Studio for ARM 7.10a/source/libcxx/include/limits"
	.loc 2 214 85
	mvn	r3, #-2147483648
.LBE113:
.LBE112:
	.loc 2 451 97
	nop
.LBE111:
.LBE110:
	.loc 1 80 3
	asrs	r2, r3, #31
	mov	r6, r3
	mov	r7, r2
	ldrd	r2, [sp, #24]
	cmp	r6, r2
	sbcs	r3, r7, r3
	bge	.L9
	.loc 1 80 3 is_stmt 0 discriminator 1
	bl	abort
.L9:
	.loc 1 91 7 is_stmt 1
	ldr	r3, [sp]
	ldr	r3, [r3]
	.loc 1 91 3
	cmn	r3, #31
	bge	.L10
	.loc 1 92 12
	ldr	r3, [sp]
	movs	r2, #0
	str	r2, [r3]
	.loc 1 93 13
	mov	r2, #0
	mov	r3, #0
	strd	r2, [sp, #24]
.L10:
	.loc 1 103 25
	ldr	r2, [sp, #24]
	ldr	r3, [sp, #4]
	str	r2, [r3]
.L1:
	.loc 1 104 1
	add	sp, sp, #36
.LCFI2:
	@ sp needed
	pop	{r4, r5, r6, r7, r8, r9, pc}
.L14:
	.align	2
.L13:
	.word	1105199104
	.word	-2147483647
.LFE1667:
	.size	_ZN6tflite18QuantizeMultiplierEdPiS0_, .-_ZN6tflite18QuantizeMultiplierEdPiS0_
	.global	__aeabi_dcmpgt
	.section	.text._ZN6tflite32QuantizeMultiplierGreaterThanOneEdPiS0_,"ax",%progbits
	.align	1
	.global	_ZN6tflite32QuantizeMultiplierGreaterThanOneEdPiS0_
	.syntax unified
	.thumb
	.thumb_func
	.type	_ZN6tflite32QuantizeMultiplierGreaterThanOneEdPiS0_, %function
_ZN6tflite32QuantizeMultiplierGreaterThanOneEdPiS0_:
.LFB1670:
	.loc 1 108 56
	@ args = 0, pretend = 0, frame = 16
	@ frame_needed = 0, uses_anonymous_args = 0
	push	{lr}
.LCFI3:
	sub	sp, sp, #20
.LCFI4:
	vstr.64	d0, [sp, #8]
	str	r0, [sp, #4]
	str	r1, [sp]
	.loc 1 109 3
	mov	r2, #0
	ldr	r3, .L19
	ldrd	r0, [sp, #8]
	bl	__aeabi_dcmpgt
	mov	r3, r0
	cmp	r3, #0
	bne	.L16
	.loc 1 109 3 is_stmt 0 discriminator 1
	bl	abort
.L16:
	.loc 1 110 21 is_stmt 1
	ldr	r1, [sp]
	ldr	r0, [sp, #4]
	vldr.64	d0, [sp, #8]
	bl	_ZN6tflite18QuantizeMultiplierEdPiS0_
	.loc 1 111 3
	ldr	r3, [sp]
	ldr	r3, [r3]
	cmp	r3, #0
	bge	.L18
	.loc 1 111 3 is_stmt 0 discriminator 1
	bl	abort
.L18:
	.loc 1 112 1 is_stmt 1
	nop
	add	sp, sp, #20
.LCFI5:
	@ sp needed
	ldr	pc, [sp], #4
.L20:
	.align	2
.L19:
	.word	1072693248
.LFE1670:
	.size	_ZN6tflite32QuantizeMultiplierGreaterThanOneEdPiS0_, .-_ZN6tflite32QuantizeMultiplierGreaterThanOneEdPiS0_
	.global	__aeabi_dcmplt
	.section	.text._ZN6tflite35QuantizeMultiplierSmallerThanOneExpEdPiS0_,"ax",%progbits
	.align	1
	.global	_ZN6tflite35QuantizeMultiplierSmallerThanOneExpEdPiS0_
	.syntax unified
	.thumb
	.thumb_func
	.type	_ZN6tflite35QuantizeMultiplierSmallerThanOneExpEdPiS0_, %function
_ZN6tflite35QuantizeMultiplierSmallerThanOneExpEdPiS0_:
.LFB1671:
	.loc 1 116 59
	@ args = 0, pretend = 0, frame = 24
	@ frame_needed = 0, uses_anonymous_args = 0
	push	{lr}
.LCFI6:
	sub	sp, sp, #28
.LCFI7:
	vstr.64	d0, [sp, #8]
	str	r0, [sp, #4]
	str	r1, [sp]
	.loc 1 117 3
	mov	r2, #0
	ldr	r3, .L25
	ldrd	r0, [sp, #8]
	bl	__aeabi_dcmplt
	mov	r3, r0
	cmp	r3, #0
	bne	.L22
	.loc 1 117 3 is_stmt 0 discriminator 1
	bl	abort
.L22:
	.loc 1 118 3 is_stmt 1
	mov	r2, #0
	mov	r3, #0
	ldrd	r0, [sp, #8]
	bl	__aeabi_dcmpgt
	mov	r3, r0
	cmp	r3, #0
	bne	.L23
	.loc 1 118 3 is_stmt 0 discriminator 1
	bl	abort
.L23:
	.loc 1 120 21 is_stmt 1
	add	r3, sp, #20
	mov	r1, r3
	ldr	r0, [sp, #4]
	vldr.64	d0, [sp, #8]
	bl	_ZN6tflite18QuantizeMultiplierEdPiS0_
	.loc 1 121 3
	ldr	r3, [sp, #20]
	cmp	r3, #0
	ble	.L24
	.loc 1 121 3 is_stmt 0 discriminator 1
	bl	abort
.L24:
	.loc 1 122 15 is_stmt 1
	ldr	r2, [sp, #20]
	ldr	r3, [sp]
	str	r2, [r3]
	.loc 1 123 1
	nop
	add	sp, sp, #28
.LCFI8:
	@ sp needed
	ldr	pc, [sp], #4
.L26:
	.align	2
.L25:
	.word	1072693248
.LFE1671:
	.size	_ZN6tflite35QuantizeMultiplierSmallerThanOneExpEdPiS0_, .-_ZN6tflite35QuantizeMultiplierSmallerThanOneExpEdPiS0_
	.section	.text._ZN6tflite12IntegerFrExpEdPi,"ax",%progbits
	.align	1
	.global	_ZN6tflite12IntegerFrExpEdPi
	.syntax unified
	.thumb
	.thumb_func
	.type	_ZN6tflite12IntegerFrExpEdPi, %function
_ZN6tflite12IntegerFrExpEdPi:
.LFB1672:
	.loc 1 125 48
	@ args = 0, pretend = 0, frame = 72
	@ frame_needed = 0, uses_anonymous_args = 0
	@ link register save eliminated.
	push	{r4, r5, r6, r7, r8, r9, r10, fp}
.LCFI9:
	sub	sp, sp, #72
.LCFI10:
	vstr.64	d0, [sp, #32]
	str	r0, [sp, #28]
	.loc 1 135 27
	ldrd	r2, [sp, #32]
	strd	r2, [sp, #40]
	.loc 1 136 18
	ldrd	r2, [sp, #40]
	strd	r2, [sp, #56]
	.loc 1 140 10
	ldrd	r2, [sp, #56]
	mov	r6, r2
	bic	r7, r3, #-2147483648
	.loc 1 140 3
	orrs	r3, r6, r7
	bne	.L28
	.loc 1 141 12
	ldr	r3, [sp, #28]
	movs	r2, #0
	str	r2, [r3]
	.loc 1 142 12
	mov	r2, #0
	mov	r3, #0
	b	.L41
.L28:
	.loc 1 148 55
	ldrd	r2, [sp, #56]
	mov	r0, #0
	mov	r1, #0
	lsrs	r0, r3, #20
	movs	r1, #0
	mov	r3, r0
	.loc 1 148 18
	ubfx	r3, r3, #0, #11
	str	r3, [sp, #52]
	.loc 1 149 3
	ldr	r3, [sp, #52]
	movw	r2, #2047
	cmp	r3, r2
	bne	.L30
.LBB114:
.LBB115:
.LBB116:
.LBB117:
	.loc 2 214 85
	mvn	r2, #-2147483648
.LBE117:
.LBE116:
	.loc 2 451 97
	nop
.LBE115:
.LBE114:
	.loc 1 150 12
	ldr	r3, [sp, #28]
	str	r2, [r3]
	.loc 1 151 11
	ldrd	r2, [sp, #56]
	adr	r1, .L42+4
	ldrd	r0, [r1]
	and	r4, r2, r0
	and	r5, r3, r1
	.loc 1 151 5
	orrs	r3, r4, r5
	beq	.L33
	.loc 1 153 14
	mov	r2, #0
	mov	r3, #0
	b	.L41
.L33:
	.loc 1 156 13
	ldrd	r2, [sp, #56]
	.loc 1 156 7
	cmp	r3, #0
	bge	.L34
.LBB118:
.LBB119:
.LBB120:
.LBB121:
	.loc 2 213 85
	mov	r2, #0
	mov	r3, #-2147483648
.LBE121:
.LBE120:
	.loc 2 450 97
	nop
.LBE119:
.LBE118:
	.loc 1 157 50
	b	.L41
.L34:
.LBB122:
.LBB123:
.LBB124:
.LBB125:
	.loc 2 214 85
	mov	r2, #-1
	mvn	r3, #-2147483648
.LBE125:
.LBE124:
	.loc 2 451 97
	nop
.LBE123:
.LBE122:
	.loc 1 159 50
	b	.L41
.L30:
	.loc 1 169 44
	ldr	r3, [sp, #52]
	subw	r3, r3, #1022
	mov	r2, r3
	.loc 1 169 10
	ldr	r3, [sp, #28]
	str	r2, [r3]
	.loc 1 174 56
	ldrd	r0, [sp, #56]
	mov	r2, #0
	mov	r3, #0
	lsrs	r2, r0, #22
	orr	r2, r2, r1, lsl #10
	lsrs	r3, r1, #22
	bic	r10, r2, #-1073741824
	mov	fp, #0
	.loc 1 174 33
	adds	r3, r10, #1073741824
	str	r3, [sp]
	adc	r3, fp, #0
	str	r3, [sp, #4]
	.loc 1 174 11
	ldrd	r3, [sp]
	strd	r3, [sp, #64]
	.loc 1 180 10
	ldrd	r2, [sp, #56]
	ubfx	r8, r2, #0, #22
	mov	r9, #0
	.loc 1 180 3
	ldr	r3, .L42
	cmp	r8, r3
	sbcs	r3, r9, #0
	bcc	.L39
	.loc 1 181 14
	ldrd	r2, [sp, #64]
	adds	r1, r2, #1
	str	r1, [sp, #8]
	adc	r3, r3, #0
	str	r3, [sp, #12]
	ldrd	r3, [sp, #8]
	strd	r3, [sp, #64]
.L39:
	.loc 1 184 9
	ldrd	r2, [sp, #56]
	.loc 1 184 3
	cmp	r3, #0
	bge	.L40
	.loc 1 185 14
	ldrd	r2, [sp, #64]
	movs	r1, #0
	negs	r0, r2
	str	r0, [sp, #16]
	sbc	r3, r1, r3
	str	r3, [sp, #20]
	ldrd	r3, [sp, #16]
	strd	r3, [sp, #64]
.L40:
	.loc 1 188 10
	ldrd	r2, [sp, #64]
.L41:
	.loc 1 189 1 discriminator 1
	mov	r0, r2
	mov	r1, r3
	add	sp, sp, #72
.LCFI11:
	@ sp needed
	pop	{r4, r5, r6, r7, r8, r9, r10, fp}
.LCFI12:
	bx	lr
.L43:
	.align	3
.L42:
	.word	2097153
	.word	-4194304
	.word	1048575
.LFE1672:
	.size	_ZN6tflite12IntegerFrExpEdPi, .-_ZN6tflite12IntegerFrExpEdPi
	.section	.text._ZN6tflite26DoubleFromFractionAndShiftExi,"ax",%progbits
	.align	1
	.global	_ZN6tflite26DoubleFromFractionAndShiftExi
	.syntax unified
	.thumb
	.thumb_func
	.type	_ZN6tflite26DoubleFromFractionAndShiftExi, %function
_ZN6tflite26DoubleFromFractionAndShiftExi:
.LFB1673:
	.loc 1 191 64
	@ args = 0, pretend = 0, frame = 120
	@ frame_needed = 0, uses_anonymous_args = 0
	@ link register save eliminated.
	push	{r4, r5, r6, r7, r8, r9, r10, fp}
.LCFI13:
	sub	sp, sp, #120
.LCFI14:
	strd	r0, [sp, #72]
	str	r2, [sp, #68]
.LBB126:
.LBB127:
.LBB128:
.LBB129:
	.loc 2 214 85
	mvn	r2, #-2147483648
.LBE129:
.LBE128:
	.loc 2 451 97
	nop
.LBE127:
.LBE126:
	.loc 1 198 13
	ldr	r3, [sp, #68]
	cmp	r3, r2
	ite	eq
	moveq	r3, #1
	movne	r3, #0
	uxtb	r3, r3
	.loc 1 198 3
	cmp	r3, #0
	beq	.L47
	.loc 1 199 5
	ldrd	r2, [sp, #72]
	orrs	r3, r3, r2
	bne	.L48
.LBB130:
.LBB131:
.LBB132:
.LBB133:
	.loc 2 379 107
	mov	r4, #0
	ldr	r5, .L69
.LBE133:
.LBE132:
	.loc 2 475 109
	nop
.LBE131:
.LBE130:
	.loc 1 200 53
	b	.L68
.L48:
	.loc 1 201 12
	ldrd	r2, [sp, #72]
	cmp	r2, #1
	sbcs	r3, r3, #0
	blt	.L52
.LBB134:
.LBB135:
.LBB136:
.LBB137:
	.loc 2 378 109
	mov	r4, #0
	ldr	r5, .L69+4
.LBE137:
.LBE136:
	.loc 2 474 107
	nop
.LBE135:
.LBE134:
	.loc 1 202 52
	b	.L68
.L52:
.LBB138:
.LBB139:
.LBB140:
.LBB141:
	.loc 2 378 109
	mov	r2, #0
	ldr	r3, .L69+4
.LBE141:
.LBE140:
	.loc 2 474 107
	nop
.LBE139:
.LBE138:
	.loc 1 204 53
	mov	r4, r2
	eor	r5, r3, #-2147483648
	b	.L68
.L47:
	.loc 1 209 3
	ldrd	r2, [sp, #72]
	orrs	r3, r3, r2
	bne	.L57
	.loc 1 210 27
	mov	r2, #0
	mov	r3, #0
	strd	r2, [sp, #80]
	.loc 1 211 19
	ldrd	r4, [sp, #80]
	b	.L68
.L57:
	.loc 1 214 8
	ldr	r3, [sp, #76]
	lsrs	r3, r3, #31
	strb	r3, [sp, #103]
	.loc 1 215 42
	ldrb	r3, [sp, #103]	@ zero_extendqisi2
	cmp	r3, #0
	beq	.L58
	.loc 1 215 42 is_stmt 0 discriminator 1
	ldrd	r2, [sp, #72]
	movs	r1, #0
	negs	r6, r2
	sbc	r7, r1, r3
	b	.L59
.L58:
	.loc 1 215 42 discriminator 2
	ldrd	r6, [sp, #72]
.L59:
	.loc 1 215 11 is_stmt 1 discriminator 4
	strd	r6, [sp, #112]
	.loc 1 216 34 discriminator 4
	ldr	r3, [sp, #68]
	subs	r3, r3, #1
	.loc 1 216 11 discriminator 4
	asrs	r2, r3, #31
	str	r3, [sp, #8]
	str	r2, [sp, #12]
	ldrd	r3, [sp, #8]
	strd	r3, [sp, #104]
	.loc 1 217 3 discriminator 4
	b	.L60
.L61:
	.loc 1 218 22
	ldrd	r2, [sp, #112]
	adds	r1, r2, r2
	str	r1, [sp, #16]
	adcs	r3, r3, r3
	str	r3, [sp, #20]
	ldrd	r3, [sp, #16]
	strd	r3, [sp, #112]
	.loc 1 219 19
	ldrd	r2, [sp, #104]
	subs	r1, r2, #1
	str	r1, [sp, #24]
	adc	r3, r3, #-1
	str	r3, [sp, #28]
	ldrd	r3, [sp, #24]
	strd	r3, [sp, #104]
.L60:
	.loc 1 217 27
	ldrd	r2, [sp, #112]
	cmp	r2, #1073741824
	sbcs	r3, r3, #0
	blt	.L61
	.loc 1 221 3
	b	.L62
.L63:
	.loc 1 222 22
	ldrd	r2, [sp, #112]
	lsrs	r1, r3, #31
	movs	r0, #0
	str	r1, [sp, #32]
	str	r0, [sp, #36]
	ldrd	r4, [sp, #32]
	mov	r1, r4
	adds	r8, r1, r2
	mov	r1, r5
	adc	r9, r1, r3
	mov	r2, #0
	mov	r3, #0
	lsr	r2, r8, #1
	orr	r2, r2, r9, lsl #31
	asr	r3, r9, #1
	strd	r2, [sp, #112]
	.loc 1 223 19
	ldrd	r2, [sp, #104]
	adds	r1, r2, #1
	str	r1, [sp, #40]
	adc	r3, r3, #0
	str	r3, [sp, #44]
	ldrd	r3, [sp, #40]
	strd	r3, [sp, #104]
.L62:
	.loc 1 221 27
	ldrd	r2, [sp, #112]
	ldr	r1, .L69+8
	cmp	r2, r1
	sbcs	r3, r3, #0
	bge	.L63
	.loc 1 225 20
	ldrd	r2, [sp, #112]
	adds	r1, r2, #-1073741824
	str	r1, [sp, #48]
	adc	r3, r3, #-1
	str	r3, [sp, #52]
	ldrd	r3, [sp, #48]
	strd	r3, [sp, #112]
	.loc 1 226 3
	ldrd	r2, [sp, #104]
	ldr	r1, .L69+12
	cmp	r2, r1
	sbcs	r3, r3, #-1
	bge	.L64
	.loc 1 227 19
	ldr	r2, .L69+16
	mov	r3, #-1
	strd	r2, [sp, #104]
	b	.L65
.L64:
	.loc 1 228 10
	ldrd	r2, [sp, #104]
	movw	r1, #1023
	cmp	r2, r1
	sbcs	r3, r3, #0
	blt	.L65
	.loc 1 229 19
	movw	r2, #1023
	mov	r3, #0
	strd	r2, [sp, #104]
.L65:
	.loc 1 231 17
	ldrd	r2, [sp, #104]
	movw	r1, #1023
	adds	r1, r2, r1
	str	r1, [sp, #56]
	adc	r3, r3, #0
	str	r3, [sp, #60]
	ldrd	r3, [sp, #56]
	strd	r3, [sp, #104]
	.loc 1 232 39
	ldrb	r3, [sp, #103]	@ zero_extendqisi2
	cmp	r3, #0
	beq	.L66
	.loc 1 232 39 is_stmt 0 discriminator 1
	mov	r2, #0
	mov	r3, #-2147483648
	b	.L67
.L66:
	.loc 1 232 39 discriminator 2
	mov	r2, #0
	mov	r3, #0
.L67:
	.loc 1 232 12 is_stmt 1 discriminator 4
	strd	r2, [sp, #88]
	.loc 1 233 57 discriminator 4
	ldrd	r0, [sp, #104]
	mov	r2, #0
	mov	r3, #0
	lsls	r3, r0, #20
	movs	r2, #0
	mov	r0, r2
	mov	r1, r3
	.loc 1 233 40 discriminator 4
	ldrd	r2, [sp, #88]
	orr	r10, r0, r2
	orr	fp, r1, r3
	.loc 1 234 45 discriminator 4
	ldrd	r0, [sp, #112]
	mov	r2, #0
	mov	r3, #0
	lsls	r3, r1, #22
	orr	r3, r3, r0, lsr #10
	lsls	r2, r0, #22
	.loc 1 233 76 discriminator 4
	orr	r1, r10, r2
	str	r1, [sp]
	orr	r3, fp, r3
	str	r3, [sp, #4]
	.loc 1 233 25 discriminator 4
	ldrd	r3, [sp]
	strd	r3, [sp, #80]
	.loc 1 235 17 discriminator 4
	ldrd	r4, [sp, #80]
.L68:
	.loc 1 236 1 discriminator 1
	vmov	d7, r4, r5
	vmov.f32	s0, s14
	vmov.f32	s1, s15
	add	sp, sp, #120
.LCFI15:
	@ sp needed
	pop	{r4, r5, r6, r7, r8, r9, r10, fp}
.LCFI16:
	bx	lr
.L70:
	.align	2
.L69:
	.word	2146959360
	.word	2146435072
	.word	-2147483647
	.word	-1022
	.word	-1023
.LFE1673:
	.size	_ZN6tflite26DoubleFromFractionAndShiftExi, .-_ZN6tflite26DoubleFromFractionAndShiftExi
	.section	.text._ZN6tflite21IntegerDoubleMultiplyEdd,"ax",%progbits
	.align	1
	.global	_ZN6tflite21IntegerDoubleMultiplyEdd
	.syntax unified
	.thumb
	.thumb_func
	.type	_ZN6tflite21IntegerDoubleMultiplyEdd, %function
_ZN6tflite21IntegerDoubleMultiplyEdd:
.LFB1675:
	.loc 1 238 50
	@ args = 0, pretend = 0, frame = 56
	@ frame_needed = 0, uses_anonymous_args = 0
	push	{r4, r5, lr}
.LCFI17:
	sub	sp, sp, #60
.LCFI18:
	vstr.64	d0, [sp, #8]
	vstr.64	d1, [sp]
	.loc 1 240 42
	add	r3, sp, #20
	mov	r0, r3
	vldr.64	d0, [sp, #8]
	bl	_ZN6tflite12IntegerFrExpEdPi
	strd	r0, [sp, #48]
	.loc 1 242 42
	add	r3, sp, #16
	mov	r0, r3
	vldr.64	d0, [sp]
	bl	_ZN6tflite12IntegerFrExpEdPi
	strd	r0, [sp, #40]
.LBB142:
.LBB143:
.LBB144:
.LBB145:
	.loc 2 214 85
	mvn	r2, #-2147483648
.LBE145:
.LBE144:
	.loc 2 451 97
	nop
.LBE143:
.LBE142:
	.loc 1 244 15
	ldr	r3, [sp, #20]
	.loc 1 244 50
	cmp	r2, r3
	beq	.L74
.LBB146:
.LBB147:
.LBB148:
.LBB149:
	.loc 2 214 85
	mvn	r2, #-2147483648
.LBE149:
.LBE148:
	.loc 2 451 97
	nop
.LBE147:
.LBE146:
	.loc 1 245 16
	ldr	r3, [sp, #16]
	.loc 1 244 50
	cmp	r2, r3
	bne	.L77
.L74:
	.loc 1 244 50 is_stmt 0 discriminator 3
	movs	r3, #1
	b	.L78
.L77:
	.loc 1 244 50 discriminator 4
	movs	r3, #0
.L78:
	.loc 1 244 3 is_stmt 1 discriminator 6
	cmp	r3, #0
	beq	.L79
.LBB150:
.LBB151:
.LBB152:
.LBB153:
	.loc 2 379 107
	vldr.64	d7, .L84
.LBE153:
.LBE152:
	.loc 2 475 109
	nop
.LBE151:
.LBE150:
	.loc 1 246 51
	b	.L83
.L79:
	.loc 1 248 36
	ldr	r2, [sp, #20]
	ldr	r3, [sp, #16]
	add	r3, r3, r2
	.loc 1 248 13
	adds	r3, r3, #1
	str	r3, [sp, #36]
	.loc 1 249 47
	ldr	r3, [sp, #52]
	ldr	r2, [sp, #40]
	mul	r2, r3, r2
	ldr	r3, [sp, #44]
	ldr	r1, [sp, #48]
	mul	r3, r1, r3
	add	r3, r3, r2
	ldr	r1, [sp, #48]
	ldr	r2, [sp, #40]
	umull	r4, r5, r1, r2
	add	r3, r3, r5
	mov	r5, r3
	.loc 1 249 17
	mov	r2, #0
	mov	r3, #0
	movs	r2, r5
	asrs	r3, r5, #31
	strd	r2, [sp, #24]
	.loc 1 250 36
	ldr	r2, [sp, #36]
	ldrd	r0, [sp, #24]
	bl	_ZN6tflite26DoubleFromFractionAndShiftExi
	vmov.f32	s14, s0
	vmov.f32	s15, s1
	.loc 1 250 66
	nop
.L83:
	.loc 1 251 1 discriminator 1
	vmov.f32	s0, s14
	vmov.f32	s1, s15
	add	sp, sp, #60
.LCFI19:
	@ sp needed
	pop	{r4, r5, pc}
.L85:
	.align	3
.L84:
	.word	0
	.word	2146959360
.LFE1675:
	.size	_ZN6tflite21IntegerDoubleMultiplyEdd, .-_ZN6tflite21IntegerDoubleMultiplyEdd
	.section	.text._ZN6tflite20IntegerDoubleCompareEdd,"ax",%progbits
	.align	1
	.global	_ZN6tflite20IntegerDoubleCompareEdd
	.syntax unified
	.thumb
	.thumb_func
	.type	_ZN6tflite20IntegerDoubleCompareEdd, %function
_ZN6tflite20IntegerDoubleCompareEdd:
.LFB1676:
	.loc 1 253 46
	@ args = 0, pretend = 0, frame = 40
	@ frame_needed = 0, uses_anonymous_args = 0
	push	{lr}
.LCFI20:
	sub	sp, sp, #44
.LCFI21:
	vstr.64	d0, [sp, #8]
	vstr.64	d1, [sp]
	.loc 1 255 42
	add	r3, sp, #20
	mov	r0, r3
	vldr.64	d0, [sp, #8]
	bl	_ZN6tflite12IntegerFrExpEdPi
	strd	r0, [sp, #32]
	.loc 1 257 42
	add	r3, sp, #16
	mov	r0, r3
	vldr.64	d0, [sp]
	bl	_ZN6tflite12IntegerFrExpEdPi
	strd	r0, [sp, #24]
.LBB154:
.LBB155:
.LBB156:
.LBB157:
	.loc 2 214 85
	mvn	r2, #-2147483648
.LBE157:
.LBE156:
	.loc 2 451 97
	nop
.LBE155:
.LBE154:
	.loc 1 260 15
	ldr	r3, [sp, #20]
	.loc 1 260 50
	cmp	r2, r3
	beq	.L89
.LBB158:
.LBB159:
.LBB160:
.LBB161:
	.loc 2 214 85
	mvn	r2, #-2147483648
.LBE161:
.LBE160:
	.loc 2 451 97
	nop
.LBE159:
.LBE158:
	.loc 1 261 16
	ldr	r3, [sp, #16]
	.loc 1 260 50
	cmp	r2, r3
	bne	.L92
.L89:
	.loc 1 260 50 is_stmt 0 discriminator 3
	movs	r3, #1
	b	.L93
.L92:
	.loc 1 260 50 discriminator 4
	movs	r3, #0
.L93:
	.loc 1 260 3 is_stmt 1 discriminator 6
	cmp	r3, #0
	beq	.L94
	.loc 1 262 12
	movs	r3, #1
	b	.L102
.L94:
	.loc 1 265 3
	ldrd	r2, [sp, #32]
	orrs	r3, r3, r2
	bne	.L96
	.loc 1 265 25 discriminator 1
	ldrd	r2, [sp, #24]
	cmp	r3, #0
	bge	.L96
	.loc 1 266 12
	movs	r3, #1
	b	.L102
.L96:
	.loc 1 267 10
	ldrd	r2, [sp, #32]
	cmp	r3, #0
	bge	.L97
	.loc 1 267 31 discriminator 1
	ldrd	r2, [sp, #24]
	orrs	r3, r3, r2
	bne	.L97
	.loc 1 268 13
	mov	r3, #-1
	b	.L102
.L97:
	.loc 1 269 22
	ldr	r2, [sp, #20]
	ldr	r3, [sp, #16]
	.loc 1 269 10
	cmp	r2, r3
	bge	.L98
	.loc 1 270 13
	mov	r3, #-1
	b	.L102
.L98:
	.loc 1 271 22
	ldr	r2, [sp, #20]
	ldr	r3, [sp, #16]
	.loc 1 271 10
	cmp	r2, r3
	ble	.L99
	.loc 1 272 12
	movs	r3, #1
	b	.L102
.L99:
	.loc 1 273 10
	ldrd	r0, [sp, #32]
	ldrd	r2, [sp, #24]
	cmp	r0, r2
	sbcs	r3, r1, r3
	bge	.L100
	.loc 1 274 13
	mov	r3, #-1
	b	.L102
.L100:
	.loc 1 275 10
	ldrd	r2, [sp, #32]
	ldrd	r0, [sp, #24]
	cmp	r0, r2
	sbcs	r3, r1, r3
	bge	.L101
	.loc 1 276 12
	movs	r3, #1
	b	.L102
.L101:
	.loc 1 278 12
	movs	r3, #0
.L102:
	.loc 1 280 1 discriminator 1
	mov	r0, r3
	add	sp, sp, #44
.LCFI22:
	@ sp needed
	ldr	pc, [sp], #4
.LFE1676:
	.size	_ZN6tflite20IntegerDoubleCompareEdd, .-_ZN6tflite20IntegerDoubleCompareEdd
	.global	__aeabi_i2d
	.section	.text._ZN6tflite24PreprocessSoftmaxScalingEddiPiS0_,"ax",%progbits
	.align	1
	.global	_ZN6tflite24PreprocessSoftmaxScalingEddiPiS0_
	.syntax unified
	.thumb
	.thumb_func
	.type	_ZN6tflite24PreprocessSoftmaxScalingEddiPiS0_, %function
_ZN6tflite24PreprocessSoftmaxScalingEddiPiS0_:
.LFB1677:
	.loc 1 284 79
	@ args = 0, pretend = 0, frame = 80
	@ frame_needed = 0, uses_anonymous_args = 0
	push	{r4, r5, r6, lr}
.LCFI23:
	sub	sp, sp, #80
.LCFI24:
	vstr.64	d0, [sp, #24]
	vstr.64	d1, [sp, #16]
	str	r0, [sp, #12]
	str	r1, [sp, #8]
	str	r2, [sp, #4]
	.loc 1 297 16
	adr	r3, .L111
	ldrd	r2, [r3]
	strd	r2, [sp, #40]
	.loc 1 313 29
	ldrd	r2, [sp, #16]
	ldrd	r0, [sp, #24]
	bl	__aeabi_dmul
	mov	r2, r0
	mov	r3, r1
	mov	r4, r2
	mov	r5, r3
	.loc 1 313 48
	mov	r2, #-2147483648
	ldr	r3, [sp, #12]
	lsr	r3, r2, r3
	.loc 1 313 43
	mov	r0, r3
	bl	__aeabi_i2d
	mov	r2, r0
	mov	r3, r1
	mov	r0, r4
	mov	r1, r5
	bl	__aeabi_dmul
	mov	r2, r0
	mov	r3, r1
	strd	r2, [sp, #48]
	add	r3, sp, #48
	str	r3, [sp, #68]
	add	r3, sp, #40
	str	r3, [sp, #64]
	strb	r6, [sp, #36]
	ldr	r3, [sp, #64]
	str	r3, [sp, #60]
	ldr	r3, [sp, #68]
	str	r3, [sp, #56]
.LBB162:
.LBB163:
.LBB164:
.LBB165:
.LBB166:
.LBB167:
	.file 3 "C:/Program Files/SEGGER/SEGGER Embedded Studio for ARM 7.10a/source/libcxx/include/algorithm"
	.loc 3 715 71
	ldr	r3, [sp, #60]
	ldrd	r0, [r3]
	ldr	r3, [sp, #56]
	ldrd	r2, [r3]
	.loc 3 715 73
	movs	r4, #1
	bl	__aeabi_dcmplt
	mov	r3, r0
	cmp	r3, #0
	bne	.L104
	movs	r3, #0
	mov	r4, r3
.L104:
	uxtb	r3, r4
.LBE167:
.LBE166:
	.loc 3 2553 29
	cmp	r3, #0
	beq	.L106
	ldr	r3, [sp, #64]
	.loc 3 2553 37
	b	.L110
.L106:
	.loc 3 2553 29
	ldr	r3, [sp, #68]
	.loc 3 2553 37
	nop
.L110:
.LBE165:
.LBE164:
	.loc 3 2562 46
	nop
.LBE163:
.LBE162:
	.loc 1 314 43
	ldrd	r2, [r3]
	strd	r2, [sp, #72]
	.loc 1 317 35
	ldr	r1, [sp, #4]
	ldr	r0, [sp, #8]
	vldr.64	d0, [sp, #72]
	bl	_ZN6tflite32QuantizeMultiplierGreaterThanOneEdPiS0_
	.loc 1 319 1
	nop
	add	sp, sp, #80
.LCFI25:
	@ sp needed
	pop	{r4, r5, r6, pc}
.L112:
	.align	3
.L111:
	.word	-4194304
	.word	1105199103
.LFE1677:
	.size	_ZN6tflite24PreprocessSoftmaxScalingEddiPiS0_, .-_ZN6tflite24PreprocessSoftmaxScalingEddiPiS0_
	.global	__aeabi_ddiv
	.section	.text._ZN6tflite30PreprocessLogSoftmaxScalingExpEddiPiS0_S0_S0_,"ax",%progbits
	.align	1
	.global	_ZN6tflite30PreprocessLogSoftmaxScalingExpEddiPiS0_S0_S0_
	.syntax unified
	.thumb
	.thumb_func
	.type	_ZN6tflite30PreprocessLogSoftmaxScalingExpEddiPiS0_S0_S0_, %function
_ZN6tflite30PreprocessLogSoftmaxScalingExpEddiPiS0_S0_S0_:
.LFB1678:
	.loc 1 326 70
	@ args = 4, pretend = 0, frame = 40
	@ frame_needed = 0, uses_anonymous_args = 0
	push	{r4, r5, lr}
.LCFI26:
	sub	sp, sp, #44
.LCFI27:
	vstr.64	d0, [sp, #24]
	vstr.64	d1, [sp, #16]
	str	r0, [sp, #12]
	str	r1, [sp, #8]
	str	r2, [sp, #4]
	str	r3, [sp]
	.loc 1 327 27
	ldr	r2, [sp, #4]
	ldr	r1, [sp, #8]
	ldr	r0, [sp, #12]
	vldr.64	d1, [sp, #16]
	vldr.64	d0, [sp, #24]
	bl	_ZN6tflite24PreprocessSoftmaxScalingEddiPiS0_
	.loc 1 332 19
	ldr	r3, [sp, #4]
	ldr	r3, [r3]
	.loc 1 332 10
	mov	r2, #-2147483648
	lsr	r3, r2, r3
	.loc 1 332 33
	mov	r0, r3
	bl	__aeabi_i2d
	mov	r4, r0
	mov	r5, r1
	.loc 1 332 55
	ldr	r3, [sp, #8]
	ldr	r3, [r3]
	.loc 1 332 35
	mov	r0, r3
	bl	__aeabi_i2d
	mov	r2, r0
	mov	r3, r1
	.loc 1 331 16
	mov	r0, r4
	mov	r1, r5
	bl	__aeabi_ddiv
	mov	r2, r0
	mov	r3, r1
	strd	r2, [sp, #32]
	.loc 1 333 46
	ldr	r1, [sp, #56]
	ldr	r0, [sp]
	vldr.64	d0, [sp, #32]
	bl	_ZN6tflite35QuantizeMultiplierSmallerThanOneExpEdPiS0_
	.loc 1 336 1
	nop
	add	sp, sp, #44
.LCFI28:
	@ sp needed
	pop	{r4, r5, pc}
.LFE1678:
	.size	_ZN6tflite30PreprocessLogSoftmaxScalingExpEddiPiS0_S0_S0_, .-_ZN6tflite30PreprocessLogSoftmaxScalingExpEddiPiS0_S0_S0_
	.global	__aeabi_l2d
	.global	__aeabi_d2iz
	.section	.text._ZN6tflite20CalculateInputRadiusEiii,"ax",%progbits
	.align	1
	.global	_ZN6tflite20CalculateInputRadiusEiii
	.syntax unified
	.thumb
	.thumb_func
	.type	_ZN6tflite20CalculateInputRadiusEiii, %function
_ZN6tflite20CalculateInputRadiusEiii:
.LFB1679:
	.loc 1 339 49
	@ args = 0, pretend = 0, frame = 24
	@ frame_needed = 0, uses_anonymous_args = 0
	push	{r4, r5, r6, r7, r8, r9, lr}
.LCFI29:
	sub	sp, sp, #28
.LCFI30:
	str	r0, [sp, #12]
	str	r1, [sp, #8]
	str	r2, [sp, #4]
	.loc 1 347 17
	movs	r2, #1
	ldr	r3, [sp, #12]
	lsl	r3, r2, r3
	.loc 1 347 40
	subs	r3, r3, #1
	.loc 1 347 45
	mov	r0, r3
	bl	__aeabi_i2d
	mov	r8, r0
	mov	r9, r1
	.loc 1 348 34
	ldr	r2, [sp, #4]
	ldr	r3, [sp, #12]
	subs	r1, r2, r3
	.loc 1 348 12
	mov	r2, #1
	mov	r3, #0
	sub	ip, r1, #32
	rsb	r0, r1, #32
	lsl	r7, r3, r1
	lsl	ip, r2, ip
	orr	r7, r7, ip
	lsr	r0, r2, r0
	orrs	r7, r7, r0
	lsl	r6, r2, r1
	.loc 1 347 45
	mov	r0, r6
	mov	r1, r7
	bl	__aeabi_l2d
	mov	r2, r0
	mov	r3, r1
	mov	r0, r8
	mov	r1, r9
	bl	__aeabi_dmul
	mov	r2, r0
	mov	r3, r1
	mov	r8, r2
	mov	r9, r3
	.loc 1 349 12
	mov	r2, #1
	mov	r3, #0
	ldr	r1, [sp, #8]
	sub	r6, r1, #32
	rsb	r0, r1, #32
	lsl	r5, r3, r1
	lsl	r6, r2, r6
	orrs	r5, r5, r6
	lsr	r0, r2, r0
	orrs	r5, r5, r0
	lsl	r4, r2, r1
	.loc 1 348 57
	mov	r0, r4
	mov	r1, r5
	bl	__aeabi_l2d
	mov	r2, r0
	mov	r3, r1
	.loc 1 346 16
	mov	r0, r8
	mov	r1, r9
	bl	__aeabi_ddiv
	mov	r2, r0
	mov	r3, r1
	strd	r2, [sp, #16]
	.loc 1 353 37
	vldr.64	d0, [sp, #16]
	bl	floor
	vmov	r2, r3, d0
	.loc 1 353 57
	mov	r0, r2
	mov	r1, r3
	bl	__aeabi_d2iz
	mov	r3, r0
	.loc 1 355 1
	mov	r0, r3
	add	sp, sp, #28
.LCFI31:
	@ sp needed
	pop	{r4, r5, r6, r7, r8, r9, pc}
.LFE1679:
	.size	_ZN6tflite20CalculateInputRadiusEiii, .-_ZN6tflite20CalculateInputRadiusEiii
	.section	.text._ZN6tflite22NudgeQuantizationRangeEffiiPfS0_S0_,"ax",%progbits
	.align	1
	.global	_ZN6tflite22NudgeQuantizationRangeEffiiPfS0_S0_
	.syntax unified
	.thumb
	.thumb_func
	.type	_ZN6tflite22NudgeQuantizationRangeEffiiPfS0_S0_, %function
_ZN6tflite22NudgeQuantizationRangeEffiiPfS0_S0_:
.LFB1680:
	.loc 1 360 50
	@ args = 4, pretend = 0, frame = 40
	@ frame_needed = 0, uses_anonymous_args = 0
	push	{lr}
.LCFI32:
	sub	sp, sp, #44
.LCFI33:
	vstr.32	s0, [sp, #20]
	vstr.32	s1, [sp, #16]
	str	r0, [sp, #12]
	str	r1, [sp, #8]
	str	r2, [sp, #4]
	str	r3, [sp]
	.loc 1 362 15
	ldr	r3, [sp, #12]
	vmov	s15, r3	@ int
	vcvt.f32.s32	s15, s15
	vstr.32	s15, [sp, #32]
	.loc 1 363 15
	ldr	r3, [sp, #8]
	vmov	s15, r3	@ int
	vcvt.f32.s32	s15, s15
	vstr.32	s15, [sp, #28]
	.loc 1 364 24
	vldr.32	s14, [sp, #16]
	vldr.32	s15, [sp, #20]
	vsub.f32	s13, s14, s15
	.loc 1 364 50
	vldr.32	s14, [sp, #28]
	vldr.32	s15, [sp, #32]
	vsub.f32	s14, s14, s15
	.loc 1 364 31
	vdiv.f32	s15, s13, s14
	.loc 1 364 17
	ldr	r3, [sp, #48]
	vstr.32	s15, [r3]
	.loc 1 365 61
	ldr	r3, [sp, #48]
	vldr.32	s14, [r3]
	.loc 1 365 59
	vldr.32	s13, [sp, #20]
	vdiv.f32	s15, s13, s14
	.loc 1 365 15
	vldr.32	s14, [sp, #32]
	vsub.f32	s15, s14, s15
	vstr.32	s15, [sp, #24]
	.loc 1 367 3
	vldr.32	s14, [sp, #24]
	vldr.32	s15, [sp, #32]
	vcmpe.f32	s14, s15
	vmrs	APSR_nzcv, FPSCR
	bpl	.L124
	.loc 1 368 23
	ldr	r3, [sp, #12]
	strh	r3, [sp, #38]	@ movhi
	b	.L119
.L124:
	.loc 1 369 10
	vldr.32	s14, [sp, #24]
	vldr.32	s15, [sp, #28]
	vcmpe.f32	s14, s15
	vmrs	APSR_nzcv, FPSCR
	ble	.L125
	.loc 1 370 23
	ldr	r3, [sp, #8]
	strh	r3, [sp, #38]	@ movhi
	b	.L119
.L125:
	.loc 1 372 58
	vldr.32	s0, [sp, #24]
	bl	_ZN6tflite11TfLiteRoundIfEET_S1_
	vmov.f32	s15, s0
	.loc 1 372 23
	vcvt.u32.f32	s15, s15
	vmov	r3, s15	@ int
	strh	r3, [sp, #38]	@ movhi
.L119:
	.loc 1 374 36
	ldrh	r3, [sp, #38]
	.loc 1 374 34
	vmov	s15, r3	@ int
	vcvt.f32.s32	s15, s15
	vldr.32	s14, [sp, #32]
	vsub.f32	s14, s14, s15
	.loc 1 374 58
	ldr	r3, [sp, #48]
	vldr.32	s15, [r3]
	.loc 1 374 55
	vmul.f32	s15, s14, s15
	.loc 1 374 15
	ldr	r3, [sp, #4]
	vstr.32	s15, [r3]
	.loc 1 375 36
	ldrh	r3, [sp, #38]
	.loc 1 375 34
	vmov	s15, r3	@ int
	vcvt.f32.s32	s15, s15
	vldr.32	s14, [sp, #28]
	vsub.f32	s14, s14, s15
	.loc 1 375 58
	ldr	r3, [sp, #48]
	vldr.32	s15, [r3]
	.loc 1 375 55
	vmul.f32	s15, s14, s15
	.loc 1 375 15
	ldr	r3, [sp]
	vstr.32	s15, [r3]
	.loc 1 376 1
	nop
	add	sp, sp, #44
.LCFI34:
	@ sp needed
	ldr	pc, [sp], #4
.LFE1680:
	.size	_ZN6tflite22NudgeQuantizationRangeEffiiPfS0_S0_, .-_ZN6tflite22NudgeQuantizationRangeEffiiPfS0_S0_
	.section	.text._ZN6tflite17FakeQuantizeArrayEfffPKfPff,"ax",%progbits
	.align	1
	.global	_ZN6tflite17FakeQuantizeArrayEfffPKfPff
	.syntax unified
	.thumb
	.thumb_func
	.type	_ZN6tflite17FakeQuantizeArrayEfffPKfPff, %function
_ZN6tflite17FakeQuantizeArrayEfffPKfPff:
.LFB1681:
	.loc 1 380 62
	@ args = 0, pretend = 0, frame = 96
	@ frame_needed = 0, uses_anonymous_args = 0
	push	{r4, r5, lr}
.LCFI35:
	sub	sp, sp, #100
.LCFI36:
	vstr.32	s0, [sp, #20]
	vstr.32	s1, [sp, #16]
	vstr.32	s2, [sp, #12]
	str	r0, [sp, #8]
	str	r1, [sp, #4]
	vstr.32	s3, [sp]
	.loc 1 382 15
	vmov.f32	s13, #1.0e+0
	vldr.32	s14, [sp, #20]
	vdiv.f32	s15, s13, s14
	vstr.32	s15, [sp, #88]
.LBB168:
	.loc 1 384 12
	movs	r3, #0
	str	r3, [sp, #92]
	.loc 1 384 3
	b	.L127
.L138:
.LBB169:
	.loc 1 385 38 discriminator 3
	ldr	r3, [sp, #92]
	.loc 1 385 39 discriminator 3
	lsls	r3, r3, #2
	ldr	r2, [sp, #8]
	add	r3, r3, r2
	ldr	r3, [r3]	@ float
	.loc 1 385 17 discriminator 3
	str	r3, [sp, #36]	@ float
	add	r3, sp, #16
	str	r3, [sp, #52]
	add	r3, sp, #36
	str	r3, [sp, #48]
	strb	r4, [sp, #32]
	ldr	r3, [sp, #52]
	str	r3, [sp, #44]
	ldr	r3, [sp, #48]
	str	r3, [sp, #40]
.LBB170:
.LBB171:
.LBB172:
.LBB173:
.LBB174:
.LBB175:
	.loc 3 715 71 discriminator 3
	ldr	r3, [sp, #44]
	vldr.32	s14, [r3]
	ldr	r3, [sp, #40]
	vldr.32	s15, [r3]
	.loc 3 715 73 discriminator 3
	vcmpe.f32	s14, s15
	vmrs	APSR_nzcv, FPSCR
	ite	mi
	movmi	r3, #1
	movpl	r3, #0
	uxtb	r3, r3
.LBE175:
.LBE174:
	.loc 3 2626 29 discriminator 3
	cmp	r3, #0
	beq	.L129
	.loc 3 2626 29 is_stmt 0
	ldr	r3, [sp, #48]
	.loc 3 2626 37 is_stmt 1
	b	.L139
.L129:
	.loc 3 2626 29
	ldr	r3, [sp, #52]
	.loc 3 2626 37
	nop
.L139:
.LBE173:
.LBE172:
	.loc 3 2635 46
	nop
	str	r3, [sp, #72]
	add	r3, sp, #12
	str	r3, [sp, #68]
	ldr	r3, [sp, #72]
	str	r3, [sp, #64]
	strb	r5, [sp, #28]
	ldr	r3, [sp, #64]
	str	r3, [sp, #60]
	ldr	r3, [sp, #68]
	str	r3, [sp, #56]
.LBE171:
.LBE170:
.LBB176:
.LBB177:
.LBB178:
.LBB179:
.LBB180:
.LBB181:
	.loc 3 715 71
	ldr	r3, [sp, #60]
	vldr.32	s14, [r3]
	ldr	r3, [sp, #56]
	vldr.32	s15, [r3]
	.loc 3 715 73
	vcmpe.f32	s14, s15
	vmrs	APSR_nzcv, FPSCR
	ite	mi
	movmi	r3, #1
	movpl	r3, #0
	uxtb	r3, r3
.LBE181:
.LBE180:
	.loc 3 2553 29
	cmp	r3, #0
	beq	.L134
	ldr	r3, [sp, #64]
	.loc 3 2553 37
	b	.L140
.L134:
	.loc 3 2553 29
	ldr	r3, [sp, #68]
	.loc 3 2553 37
	nop
.L140:
.LBE179:
.LBE178:
	.loc 3 2562 46
	nop
.LBE177:
.LBE176:
	.loc 1 386 77
	ldr	r3, [r3]	@ float
	str	r3, [sp, #84]	@ float
	.loc 1 387 45
	vldr.32	s15, [sp, #16]
	.loc 1 387 17
	vldr.32	s14, [sp, #84]
	vsub.f32	s15, s14, s15
	vstr.32	s15, [sp, #80]
	.loc 1 389 20
	vldr.32	s14, [sp, #80]
	vldr.32	s15, [sp, #88]
	vmul.f32	s15, s14, s15
	vmov.f32	s0, s15
	bl	_ZN6tflite11TfLiteRoundIfEET_S1_
	vmov.f32	s14, s0
	.loc 1 389 57
	vldr.32	s15, [sp, #20]
	vmul.f32	s14, s14, s15
	.loc 1 390 9
	vldr.32	s15, [sp, #16]
	vadd.f32	s15, s14, s15
	vstr.32	s15, [sp, #76]
	.loc 1 391 17
	ldr	r3, [sp, #92]
	.loc 1 391 18
	lsls	r3, r3, #2
	ldr	r2, [sp, #4]
	add	r3, r3, r2
	.loc 1 391 20
	ldr	r2, [sp, #76]	@ float
	str	r2, [r3]	@ float
.LBE169:
	.loc 1 384 3
	ldr	r3, [sp, #92]
	adds	r3, r3, #1
	str	r3, [sp, #92]
.L127:
	.loc 1 384 21 discriminator 1
	ldr	r3, [sp, #92]
	vmov	s15, r3	@ int
	vcvt.f32.s32	s15, s15
	vldr.32	s14, [sp]
	vcmpe.f32	s14, s15
	vmrs	APSR_nzcv, FPSCR
	bgt	.L138
.LBE168:
	.loc 1 393 1
	nop
	nop
	add	sp, sp, #100
.LCFI37:
	@ sp needed
	pop	{r4, r5, pc}
.LFE1681:
	.size	_ZN6tflite17FakeQuantizeArrayEfffPKfPff, .-_ZN6tflite17FakeQuantizeArrayEfffPKfPff
	.section	.text._ZN6tflite11CheckedLog2EfPi,"ax",%progbits
	.align	1
	.global	_ZN6tflite11CheckedLog2EfPi
	.syntax unified
	.thumb
	.thumb_func
	.type	_ZN6tflite11CheckedLog2EfPi, %function
_ZN6tflite11CheckedLog2EfPi:
.LFB1682:
	.loc 1 395 51
	@ args = 0, pretend = 0, frame = 32
	@ frame_needed = 0, uses_anonymous_args = 0
	push	{lr}
.LCFI38:
	vpush.64	{d8}
.LCFI39:
	sub	sp, sp, #36
.LCFI40:
	vstr.32	s0, [sp, #4]
	str	r0, [sp]
	ldr	r3, [sp, #4]	@ float
	str	r3, [sp, #8]	@ float
.LBB182:
.LBB183:
	.file 4 "C:/Program Files/SEGGER/SEGGER Embedded Studio for ARM 7.10a/source/libcxx/include/math.h"
	.loc 4 1000 96
	vldr.32	s0, [sp, #8]
	bl	logf
	vmov.f32	s16, s0
	.loc 4 1000 105
	nop
	mov	r3, #1073741824
	str	r3, [sp, #12]	@ float
.LBE183:
.LBE182:
.LBB184:
.LBB185:
	.loc 4 1000 96
	vldr.32	s0, [sp, #12]
	bl	logf
	vmov.f32	s14, s0
	.loc 4 1000 105
	nop
.LBE185:
.LBE184:
	.loc 1 399 44
	vmov.f32	s13, #1.0e+0
	vdiv.f32	s15, s13, s14
	.loc 1 399 60
	vmul.f32	s15, s16, s15
	vstr.32	s15, [sp, #28]
	.loc 1 400 43
	vldr.32	s0, [sp, #28]
	bl	_ZN6tflite11TfLiteRoundIfEET_S1_
	vstr.32	s0, [sp, #24]
	.loc 1 401 15
	vldr.32	s14, [sp, #28]
	vldr.32	s15, [sp, #24]
	vsub.f32	s15, s14, s15
	vstr.32	s15, [sp, #20]
	.loc 1 403 18
	vldr.32	s15, [sp, #24]
	vcvt.s32.f32	s15, s15
	vmov	r2, s15	@ int
	.loc 1 403 16
	ldr	r3, [sp]
	str	r2, [r3]
	ldr	r3, [sp, #20]	@ float
	str	r3, [sp, #16]	@ float
.LBB186:
.LBB187:
	.loc 4 785 26
	vldr.32	s15, [sp, #16]
	vabs.f32	s15, s15
.LBE187:
.LBE186:
	.loc 1 404 38
	vldr.32	s14, .L146
	vcmpe.f32	s15, s14
	vmrs	APSR_nzcv, FPSCR
	ite	mi
	movmi	r3, #1
	movpl	r3, #0
	uxtb	r3, r3
	.loc 1 405 1
	mov	r0, r3
	add	sp, sp, #36
.LCFI41:
	@ sp needed
	vldm	sp!, {d8}
.LCFI42:
	ldr	pc, [sp], #4
.L147:
	.align	2
.L146:
	.word	981668463
.LFE1682:
	.size	_ZN6tflite11CheckedLog2EfPi, .-_ZN6tflite11CheckedLog2EfPi
	.section	.text._ZN6tflite23QuantizeMultiplierArrayEPKdjPiS2_,"ax",%progbits
	.align	1
	.global	_ZN6tflite23QuantizeMultiplierArrayEPKdjPiS2_
	.syntax unified
	.thumb
	.thumb_func
	.type	_ZN6tflite23QuantizeMultiplierArrayEPKdjPiS2_, %function
_ZN6tflite23QuantizeMultiplierArrayEPKdjPiS2_:
.LFB1683:
	.loc 1 409 52
	@ args = 0, pretend = 0, frame = 24
	@ frame_needed = 0, uses_anonymous_args = 0
	push	{lr}
.LCFI43:
	sub	sp, sp, #28
.LCFI44:
	str	r0, [sp, #12]
	str	r1, [sp, #8]
	str	r2, [sp, #4]
	str	r3, [sp]
.LBB188:
	.loc 1 410 15
	movs	r3, #0
	str	r3, [sp, #20]
	.loc 1 410 3
	b	.L149
.L150:
	.loc 1 411 42 discriminator 3
	ldr	r3, [sp, #20]
	lsls	r3, r3, #3
	ldr	r2, [sp, #12]
	add	r3, r3, r2
	.loc 1 411 23 discriminator 3
	vldr.64	d7, [r3]
	.loc 1 411 75 discriminator 3
	ldr	r3, [sp, #20]
	lsls	r3, r3, #2
	.loc 1 411 23 discriminator 3
	ldr	r2, [sp, #4]
	adds	r0, r2, r3
	.loc 1 412 42 discriminator 3
	ldr	r3, [sp, #20]
	lsls	r3, r3, #2
	.loc 1 411 23 discriminator 3
	ldr	r2, [sp]
	add	r3, r3, r2
	mov	r1, r3
	vmov.f32	s0, s14
	vmov.f32	s1, s15
	bl	_ZN6tflite18QuantizeMultiplierEdPiS0_
	.loc 1 410 3 discriminator 3
	ldr	r3, [sp, #20]
	adds	r3, r3, #1
	str	r3, [sp, #20]
.L149:
	.loc 1 410 24 discriminator 1
	ldr	r2, [sp, #20]
	ldr	r3, [sp, #8]
	cmp	r2, r3
	bcc	.L150
.LBE188:
	.loc 1 414 1
	nop
	nop
	add	sp, sp, #28
.LCFI45:
	@ sp needed
	ldr	pc, [sp], #4
.LFE1683:
	.size	_ZN6tflite23QuantizeMultiplierArrayEPKdjPiS2_, .-_ZN6tflite23QuantizeMultiplierArrayEPKdjPiS2_
	.section	.text._ZN6tflite11TfLiteRoundIdEET_S1_,"axG",%progbits,_ZN6tflite11TfLiteRoundIdEET_S1_,comdat
	.align	1
	.weak	_ZN6tflite11TfLiteRoundIdEET_S1_
	.syntax unified
	.thumb
	.thumb_func
	.type	_ZN6tflite11TfLiteRoundIdEET_S1_, %function
_ZN6tflite11TfLiteRoundIdEET_S1_:
.LFB1702:
	.file 5 "C:/TensorFlow/tflite-micro/tensorflow/lite/kernels/internal/cppmath.h"
	.loc 5 35 1
	@ args = 0, pretend = 0, frame = 8
	@ frame_needed = 0, uses_anonymous_args = 0
	push	{lr}
.LCFI46:
	sub	sp, sp, #12
.LCFI47:
	vstr.64	d0, [sp]
	.loc 5 35 1
	vldr.64	d0, [sp]
	bl	round
	vmov.f32	s14, s0
	vmov.f32	s15, s1
	vmov.f32	s0, s14
	vmov.f32	s1, s15
	add	sp, sp, #12
.LCFI48:
	@ sp needed
	ldr	pc, [sp], #4
.LFE1702:
	.size	_ZN6tflite11TfLiteRoundIdEET_S1_, .-_ZN6tflite11TfLiteRoundIdEET_S1_
	.section	.text._ZN6tflite11TfLiteRoundIfEET_S1_,"axG",%progbits,_ZN6tflite11TfLiteRoundIfEET_S1_,comdat
	.align	1
	.weak	_ZN6tflite11TfLiteRoundIfEET_S1_
	.syntax unified
	.thumb
	.thumb_func
	.type	_ZN6tflite11TfLiteRoundIfEET_S1_, %function
_ZN6tflite11TfLiteRoundIfEET_S1_:
.LFB1707:
	.loc 5 35 1
	@ args = 0, pretend = 0, frame = 16
	@ frame_needed = 0, uses_anonymous_args = 0
	push	{lr}
.LCFI49:
	sub	sp, sp, #20
.LCFI50:
	vstr.32	s0, [sp, #4]
	ldr	r3, [sp, #4]	@ float
	str	r3, [sp, #12]	@ float
.LBB189:
.LBB190:
	.loc 4 1512 100
	vldr.32	s0, [sp, #12]
	bl	roundf
	vmov.f32	s15, s0
	.loc 4 1512 109
	nop
.LBE190:
.LBE189:
	.loc 5 35 1
	vmov.f32	s0, s15
	add	sp, sp, #20
.LCFI51:
	@ sp needed
	ldr	pc, [sp], #4
.LFE1707:
	.size	_ZN6tflite11TfLiteRoundIfEET_S1_, .-_ZN6tflite11TfLiteRoundIfEET_S1_
	.section	.debug_frame,"",%progbits
.Lframe0:
	.4byte	.LECIE0-.LSCIE0
.LSCIE0:
	.4byte	0xffffffff
	.byte	0x3
	.ascii	"\000"
	.uleb128 0x1
	.sleb128 -4
	.uleb128 0xe
	.byte	0xc
	.uleb128 0xd
	.uleb128 0
	.align	2
.LECIE0:
.LSFDE0:
	.4byte	.LEFDE0-.LASFDE0
.LASFDE0:
	.4byte	.Lframe0
	.4byte	.LFB1667
	.4byte	.LFE1667-.LFB1667
	.byte	0x4
	.4byte	.LCFI0-.LFB1667
	.byte	0xe
	.uleb128 0x1c
	.byte	0x84
	.uleb128 0x7
	.byte	0x85
	.uleb128 0x6
	.byte	0x86
	.uleb128 0x5
	.byte	0x87
	.uleb128 0x4
	.byte	0x88
	.uleb128 0x3
	.byte	0x89
	.uleb128 0x2
	.byte	0x8e
	.uleb128 0x1
	.byte	0x4
	.4byte	.LCFI1-.LCFI0
	.byte	0xe
	.uleb128 0x40
	.byte	0x4
	.4byte	.LCFI2-.LCFI1
	.byte	0xe
	.uleb128 0x1c
	.align	2
.LEFDE0:
.LSFDE2:
	.4byte	.LEFDE2-.LASFDE2
.LASFDE2:
	.4byte	.Lframe0
	.4byte	.LFB1670
	.4byte	.LFE1670-.LFB1670
	.byte	0x4
	.4byte	.LCFI3-.LFB1670
	.byte	0xe
	.uleb128 0x4
	.byte	0x8e
	.uleb128 0x1
	.byte	0x4
	.4byte	.LCFI4-.LCFI3
	.byte	0xe
	.uleb128 0x18
	.byte	0x4
	.4byte	.LCFI5-.LCFI4
	.byte	0xe
	.uleb128 0x4
	.align	2
.LEFDE2:
.LSFDE4:
	.4byte	.LEFDE4-.LASFDE4
.LASFDE4:
	.4byte	.Lframe0
	.4byte	.LFB1671
	.4byte	.LFE1671-.LFB1671
	.byte	0x4
	.4byte	.LCFI6-.LFB1671
	.byte	0xe
	.uleb128 0x4
	.byte	0x8e
	.uleb128 0x1
	.byte	0x4
	.4byte	.LCFI7-.LCFI6
	.byte	0xe
	.uleb128 0x20
	.byte	0x4
	.4byte	.LCFI8-.LCFI7
	.byte	0xe
	.uleb128 0x4
	.align	2
.LEFDE4:
.LSFDE6:
	.4byte	.LEFDE6-.LASFDE6
.LASFDE6:
	.4byte	.Lframe0
	.4byte	.LFB1672
	.4byte	.LFE1672-.LFB1672
	.byte	0x4
	.4byte	.LCFI9-.LFB1672
	.byte	0xe
	.uleb128 0x20
	.byte	0x84
	.uleb128 0x8
	.byte	0x85
	.uleb128 0x7
	.byte	0x86
	.uleb128 0x6
	.byte	0x87
	.uleb128 0x5
	.byte	0x88
	.uleb128 0x4
	.byte	0x89
	.uleb128 0x3
	.byte	0x8a
	.uleb128 0x2
	.byte	0x8b
	.uleb128 0x1
	.byte	0x4
	.4byte	.LCFI10-.LCFI9
	.byte	0xe
	.uleb128 0x68
	.byte	0x4
	.4byte	.LCFI11-.LCFI10
	.byte	0xe
	.uleb128 0x20
	.byte	0x4
	.4byte	.LCFI12-.LCFI11
	.byte	0xcb
	.byte	0xca
	.byte	0xc9
	.byte	0xc8
	.byte	0xc7
	.byte	0xc6
	.byte	0xc5
	.byte	0xc4
	.byte	0xe
	.uleb128 0
	.align	2
.LEFDE6:
.LSFDE8:
	.4byte	.LEFDE8-.LASFDE8
.LASFDE8:
	.4byte	.Lframe0
	.4byte	.LFB1673
	.4byte	.LFE1673-.LFB1673
	.byte	0x4
	.4byte	.LCFI13-.LFB1673
	.byte	0xe
	.uleb128 0x20
	.byte	0x84
	.uleb128 0x8
	.byte	0x85
	.uleb128 0x7
	.byte	0x86
	.uleb128 0x6
	.byte	0x87
	.uleb128 0x5
	.byte	0x88
	.uleb128 0x4
	.byte	0x89
	.uleb128 0x3
	.byte	0x8a
	.uleb128 0x2
	.byte	0x8b
	.uleb128 0x1
	.byte	0x4
	.4byte	.LCFI14-.LCFI13
	.byte	0xe
	.uleb128 0x98
	.byte	0x4
	.4byte	.LCFI15-.LCFI14
	.byte	0xe
	.uleb128 0x20
	.byte	0x4
	.4byte	.LCFI16-.LCFI15
	.byte	0xcb
	.byte	0xca
	.byte	0xc9
	.byte	0xc8
	.byte	0xc7
	.byte	0xc6
	.byte	0xc5
	.byte	0xc4
	.byte	0xe
	.uleb128 0
	.align	2
.LEFDE8:
.LSFDE10:
	.4byte	.LEFDE10-.LASFDE10
.LASFDE10:
	.4byte	.Lframe0
	.4byte	.LFB1675
	.4byte	.LFE1675-.LFB1675
	.byte	0x4
	.4byte	.LCFI17-.LFB1675
	.byte	0xe
	.uleb128 0xc
	.byte	0x84
	.uleb128 0x3
	.byte	0x85
	.uleb128 0x2
	.byte	0x8e
	.uleb128 0x1
	.byte	0x4
	.4byte	.LCFI18-.LCFI17
	.byte	0xe
	.uleb128 0x48
	.byte	0x4
	.4byte	.LCFI19-.LCFI18
	.byte	0xe
	.uleb128 0xc
	.align	2
.LEFDE10:
.LSFDE12:
	.4byte	.LEFDE12-.LASFDE12
.LASFDE12:
	.4byte	.Lframe0
	.4byte	.LFB1676
	.4byte	.LFE1676-.LFB1676
	.byte	0x4
	.4byte	.LCFI20-.LFB1676
	.byte	0xe
	.uleb128 0x4
	.byte	0x8e
	.uleb128 0x1
	.byte	0x4
	.4byte	.LCFI21-.LCFI20
	.byte	0xe
	.uleb128 0x30
	.byte	0x4
	.4byte	.LCFI22-.LCFI21
	.byte	0xe
	.uleb128 0x4
	.align	2
.LEFDE12:
.LSFDE14:
	.4byte	.LEFDE14-.LASFDE14
.LASFDE14:
	.4byte	.Lframe0
	.4byte	.LFB1677
	.4byte	.LFE1677-.LFB1677
	.byte	0x4
	.4byte	.LCFI23-.LFB1677
	.byte	0xe
	.uleb128 0x10
	.byte	0x84
	.uleb128 0x4
	.byte	0x85
	.uleb128 0x3
	.byte	0x86
	.uleb128 0x2
	.byte	0x8e
	.uleb128 0x1
	.byte	0x4
	.4byte	.LCFI24-.LCFI23
	.byte	0xe
	.uleb128 0x60
	.byte	0x4
	.4byte	.LCFI25-.LCFI24
	.byte	0xe
	.uleb128 0x10
	.align	2
.LEFDE14:
.LSFDE16:
	.4byte	.LEFDE16-.LASFDE16
.LASFDE16:
	.4byte	.Lframe0
	.4byte	.LFB1678
	.4byte	.LFE1678-.LFB1678
	.byte	0x4
	.4byte	.LCFI26-.LFB1678
	.byte	0xe
	.uleb128 0xc
	.byte	0x84
	.uleb128 0x3
	.byte	0x85
	.uleb128 0x2
	.byte	0x8e
	.uleb128 0x1
	.byte	0x4
	.4byte	.LCFI27-.LCFI26
	.byte	0xe
	.uleb128 0x38
	.byte	0x4
	.4byte	.LCFI28-.LCFI27
	.byte	0xe
	.uleb128 0xc
	.align	2
.LEFDE16:
.LSFDE18:
	.4byte	.LEFDE18-.LASFDE18
.LASFDE18:
	.4byte	.Lframe0
	.4byte	.LFB1679
	.4byte	.LFE1679-.LFB1679
	.byte	0x4
	.4byte	.LCFI29-.LFB1679
	.byte	0xe
	.uleb128 0x1c
	.byte	0x84
	.uleb128 0x7
	.byte	0x85
	.uleb128 0x6
	.byte	0x86
	.uleb128 0x5
	.byte	0x87
	.uleb128 0x4
	.byte	0x88
	.uleb128 0x3
	.byte	0x89
	.uleb128 0x2
	.byte	0x8e
	.uleb128 0x1
	.byte	0x4
	.4byte	.LCFI30-.LCFI29
	.byte	0xe
	.uleb128 0x38
	.byte	0x4
	.4byte	.LCFI31-.LCFI30
	.byte	0xe
	.uleb128 0x1c
	.align	2
.LEFDE18:
.LSFDE20:
	.4byte	.LEFDE20-.LASFDE20
.LASFDE20:
	.4byte	.Lframe0
	.4byte	.LFB1680
	.4byte	.LFE1680-.LFB1680
	.byte	0x4
	.4byte	.LCFI32-.LFB1680
	.byte	0xe
	.uleb128 0x4
	.byte	0x8e
	.uleb128 0x1
	.byte	0x4
	.4byte	.LCFI33-.LCFI32
	.byte	0xe
	.uleb128 0x30
	.byte	0x4
	.4byte	.LCFI34-.LCFI33
	.byte	0xe
	.uleb128 0x4
	.align	2
.LEFDE20:
.LSFDE22:
	.4byte	.LEFDE22-.LASFDE22
.LASFDE22:
	.4byte	.Lframe0
	.4byte	.LFB1681
	.4byte	.LFE1681-.LFB1681
	.byte	0x4
	.4byte	.LCFI35-.LFB1681
	.byte	0xe
	.uleb128 0xc
	.byte	0x84
	.uleb128 0x3
	.byte	0x85
	.uleb128 0x2
	.byte	0x8e
	.uleb128 0x1
	.byte	0x4
	.4byte	.LCFI36-.LCFI35
	.byte	0xe
	.uleb128 0x70
	.byte	0x4
	.4byte	.LCFI37-.LCFI36
	.byte	0xe
	.uleb128 0xc
	.align	2
.LEFDE22:
.LSFDE24:
	.4byte	.LEFDE24-.LASFDE24
.LASFDE24:
	.4byte	.Lframe0
	.4byte	.LFB1682
	.4byte	.LFE1682-.LFB1682
	.byte	0x4
	.4byte	.LCFI38-.LFB1682
	.byte	0xe
	.uleb128 0x4
	.byte	0x8e
	.uleb128 0x1
	.byte	0x4
	.4byte	.LCFI39-.LCFI38
	.byte	0xe
	.uleb128 0xc
	.byte	0x5
	.uleb128 0x50
	.uleb128 0x3
	.byte	0x5
	.uleb128 0x51
	.uleb128 0x2
	.byte	0x4
	.4byte	.LCFI40-.LCFI39
	.byte	0xe
	.uleb128 0x30
	.byte	0x4
	.4byte	.LCFI41-.LCFI40
	.byte	0xe
	.uleb128 0xc
	.byte	0x4
	.4byte	.LCFI42-.LCFI41
	.byte	0x6
	.uleb128 0x50
	.byte	0x6
	.uleb128 0x51
	.byte	0xe
	.uleb128 0x4
	.align	2
.LEFDE24:
.LSFDE26:
	.4byte	.LEFDE26-.LASFDE26
.LASFDE26:
	.4byte	.Lframe0
	.4byte	.LFB1683
	.4byte	.LFE1683-.LFB1683
	.byte	0x4
	.4byte	.LCFI43-.LFB1683
	.byte	0xe
	.uleb128 0x4
	.byte	0x8e
	.uleb128 0x1
	.byte	0x4
	.4byte	.LCFI44-.LCFI43
	.byte	0xe
	.uleb128 0x20
	.byte	0x4
	.4byte	.LCFI45-.LCFI44
	.byte	0xe
	.uleb128 0x4
	.align	2
.LEFDE26:
.LSFDE28:
	.4byte	.LEFDE28-.LASFDE28
.LASFDE28:
	.4byte	.Lframe0
	.4byte	.LFB1702
	.4byte	.LFE1702-.LFB1702
	.byte	0x4
	.4byte	.LCFI46-.LFB1702
	.byte	0xe
	.uleb128 0x4
	.byte	0x8e
	.uleb128 0x1
	.byte	0x4
	.4byte	.LCFI47-.LCFI46
	.byte	0xe
	.uleb128 0x10
	.byte	0x4
	.4byte	.LCFI48-.LCFI47
	.byte	0xe
	.uleb128 0x4
	.align	2
.LEFDE28:
.LSFDE30:
	.4byte	.LEFDE30-.LASFDE30
.LASFDE30:
	.4byte	.Lframe0
	.4byte	.LFB1707
	.4byte	.LFE1707-.LFB1707
	.byte	0x4
	.4byte	.LCFI49-.LFB1707
	.byte	0xe
	.uleb128 0x4
	.byte	0x8e
	.uleb128 0x1
	.byte	0x4
	.4byte	.LCFI50-.LCFI49
	.byte	0xe
	.uleb128 0x18
	.byte	0x4
	.4byte	.LCFI51-.LCFI50
	.byte	0xe
	.uleb128 0x4
	.align	2
.LEFDE30:
	.text
.Letext0:
	.file 6 "C:/Program Files/SEGGER/SEGGER Embedded Studio for ARM 7.10a/source/libcxx/include/cstddef"
	.file 7 "C:/Program Files/SEGGER/SEGGER Embedded Studio for ARM 7.10a/source/libcxx/include/type_traits"
	.file 8 "C:/Program Files/SEGGER/SEGGER Embedded Studio for ARM 7.10a/source/libcxx/include/cmath"
	.file 9 "C:/Program Files/SEGGER/SEGGER Embedded Studio for ARM 7.10a/source/libcxx/include/cstdint"
	.file 10 "C:/Program Files/SEGGER/SEGGER Embedded Studio for ARM 7.10a/source/libcxx/include/cstdlib"
	.file 11 "C:/Program Files/SEGGER/SEGGER Embedded Studio for ARM 7.10a/source/libcxx/include/cstring"
	.file 12 "C:/Program Files/SEGGER/SEGGER Embedded Studio for ARM 7.10a/source/libcxx/include/utility"
	.file 13 "C:/Program Files/SEGGER/SEGGER Embedded Studio for ARM 7.10a/source/libcxx/include/__functional_base"
	.file 14 "C:/Program Files/SEGGER/SEGGER Embedded Studio for ARM 7.10a/source/libcxx/include/tuple"
	.file 15 "C:/Program Files/SEGGER/SEGGER Embedded Studio for ARM 7.10a/source/libcxx/include/memory"
	.file 16 "C:/Program Files/SEGGER/SEGGER Embedded Studio for ARM 7.10a/source/libcxx/include/functional"
	.file 17 "C:/Program Files/SEGGER/SEGGER Embedded Studio for ARM 7.10a/source/libcxx/include/__config"
	.file 18 "C:/Program Files/SEGGER/SEGGER Embedded Studio for ARM 7.10a/include/stdlib.h"
	.file 19 "C:/Program Files/SEGGER/SEGGER Embedded Studio for ARM 7.10a/include/math.h"
	.file 20 "C:/Program Files/SEGGER/SEGGER Embedded Studio for ARM 7.10a/include/stddef.h"
	.file 21 "C:/Program Files/SEGGER/SEGGER Embedded Studio for ARM 7.10a/include/stdint.h"
	.file 22 "C:/Program Files/SEGGER/SEGGER Embedded Studio for ARM 7.10a/include/string.h"
	.file 23 "C:/TensorFlow/tflite-micro/tensorflow/lite/kernels/internal/types.h"