	.cpu cortex-m4
	.arch armv7e-m
	.fpu fpv4-sp-d16
	.eabi_attribute 27, 1
	.eabi_attribute 28, 1
	.eabi_attribute 20, 1
	.eabi_attribute 21, 1
	.eabi_attribute 23, 3
	.eabi_attribute 24, 1
	.eabi_attribute 25, 1
	.eabi_attribute 26, 1
	.eabi_attribute 30, 6
	.eabi_attribute 34, 1
	.eabi_attribute 38, 1
	.eabi_attribute 18, 4
	.file	"svdf.cc"
	.text
.Ltext0:
	.section	.rodata._ZNSt3__1L19piecewise_constructE,"a"
	.align	2
	.type	_ZNSt3__1L19piecewise_constructE, %object
	.size	_ZNSt3__1L19piecewise_constructE, 1
_ZNSt3__1L19piecewise_constructE:
	.space	1
	.section	.rodata._ZNSt3__1L13allocator_argE,"a"
	.align	2
	.type	_ZNSt3__1L13allocator_argE, %object
	.size	_ZNSt3__1L13allocator_argE, 1
_ZNSt3__1L13allocator_argE:
	.space	1
	.section	.rodata._ZNSt3__112_GLOBAL__N_1L6ignoreE,"a"
	.align	2
	.type	_ZNSt3__112_GLOBAL__N_1L6ignoreE, %object
	.size	_ZNSt3__112_GLOBAL__N_1L6ignoreE, 1
_ZNSt3__112_GLOBAL__N_1L6ignoreE:
	.space	1
	.section	.rodata._ZNSt3__112placeholdersL2_1E,"a"
	.align	2
	.type	_ZNSt3__112placeholdersL2_1E, %object
	.size	_ZNSt3__112placeholdersL2_1E, 1
_ZNSt3__112placeholdersL2_1E:
	.space	1
	.section	.rodata._ZNSt3__112placeholdersL2_2E,"a"
	.align	2
	.type	_ZNSt3__112placeholdersL2_2E, %object
	.size	_ZNSt3__112placeholdersL2_2E, 1
_ZNSt3__112placeholdersL2_2E:
	.space	1
	.section	.rodata._ZNSt3__112placeholdersL2_3E,"a"
	.align	2
	.type	_ZNSt3__112placeholdersL2_3E, %object
	.size	_ZNSt3__112placeholdersL2_3E, 1
_ZNSt3__112placeholdersL2_3E:
	.space	1
	.section	.rodata._ZNSt3__112placeholdersL2_4E,"a"
	.align	2
	.type	_ZNSt3__112placeholdersL2_4E, %object
	.size	_ZNSt3__112placeholdersL2_4E, 1
_ZNSt3__112placeholdersL2_4E:
	.space	1
	.section	.rodata._ZNSt3__112placeholdersL2_5E,"a"
	.align	2
	.type	_ZNSt3__112placeholdersL2_5E, %object
	.size	_ZNSt3__112placeholdersL2_5E, 1
_ZNSt3__112placeholdersL2_5E:
	.space	1
	.section	.rodata._ZNSt3__112placeholdersL2_6E,"a"
	.align	2
	.type	_ZNSt3__112placeholdersL2_6E, %object
	.size	_ZNSt3__112placeholdersL2_6E, 1
_ZNSt3__112placeholdersL2_6E:
	.space	1
	.section	.rodata._ZNSt3__112placeholdersL2_7E,"a"
	.align	2
	.type	_ZNSt3__112placeholdersL2_7E, %object
	.size	_ZNSt3__112placeholdersL2_7E, 1
_ZNSt3__112placeholdersL2_7E:
	.space	1
	.section	.rodata._ZNSt3__112placeholdersL2_8E,"a"
	.align	2
	.type	_ZNSt3__112placeholdersL2_8E, %object
	.size	_ZNSt3__112placeholdersL2_8E, 1
_ZNSt3__112placeholdersL2_8E:
	.space	1
	.section	.rodata._ZNSt3__112placeholdersL2_9E,"a"
	.align	2
	.type	_ZNSt3__112placeholdersL2_9E, %object
	.size	_ZNSt3__112placeholdersL2_9E, 1
_ZNSt3__112placeholdersL2_9E:
	.space	1
	.section	.rodata._ZNSt3__112placeholdersL3_10E,"a"
	.align	2
	.type	_ZNSt3__112placeholdersL3_10E, %object
	.size	_ZNSt3__112placeholdersL3_10E, 1
_ZNSt3__112placeholdersL3_10E:
	.space	1
	.section	.rodata._ZN6tfliteL23kTransposeMaxDimensionsE,"a"
	.align	2
	.type	_ZN6tfliteL23kTransposeMaxDimensionsE, %object
	.size	_ZN6tfliteL23kTransposeMaxDimensionsE, 4
_ZN6tfliteL23kTransposeMaxDimensionsE:
	.word	6
	.section	.rodata._ZN6tfliteL13kReverseShiftE,"a"
	.align	2
	.type	_ZN6tfliteL13kReverseShiftE, %object
	.size	_ZN6tfliteL13kReverseShiftE, 4
_ZN6tfliteL13kReverseShiftE:
	.word	-1
	.section	.rodata._ZN6tfliteL20sigmoid_table_uint16E,"a"
	.align	2
	.type	_ZN6tfliteL20sigmoid_table_uint16E, %object
	.size	_ZN6tfliteL20sigmoid_table_uint16E, 512
_ZN6tfliteL20sigmoid_table_uint16E:
	.short	-32768
	.short	-32085
	.short	-31403
	.short	-30723
	.short	-30043
	.short	-29367
	.short	-28693
	.short	-28023
	.short	-27356
	.short	-26695
	.short	-26038
	.short	-25387
	.short	-24742
	.short	-24104
	.short	-23472
	.short	-22848
	.short	-22232
	.short	-21624
	.short	-21025
	.short	-20434
	.short	-19853
	.short	-19281
	.short	-18719
	.short	-18167
	.short	-17625
	.short	-17093
	.short	-16572
	.short	-16061
	.short	-15561
	.short	-15072
	.short	-14594
	.short	-14127
	.short	-13671
	.short	-13225
	.short	-12791
	.short	-12367
	.short	-11955
	.short	-11553
	.short	-11162
	.short	-10781
	.short	-10411
	.short	-10051
	.short	-9702
	.short	-9362
	.short	-9033
	.short	-8713
	.short	-8403
	.short	-8103
	.short	-7812
	.short	-7529
	.short	-7256
	.short	-6992
	.short	-6736
	.short	-6488
	.short	-6248
	.short	-6017
	.short	-5793
	.short	-5577
	.short	-5368
	.short	-5166
	.short	-4971
	.short	-4783
	.short	-4601
	.short	-4426
	.short	-4257
	.short	-4095
	.short	-3937
	.short	-3786
	.short	-3640
	.short	-3500
	.short	-3364
	.short	-3234
	.short	-3108
	.short	-2987
	.short	-2870
	.short	-2758
	.short	-2650
	.short	-2546
	.short	-2446
	.short	-2350
	.short	-2257
	.short	-2168
	.short	-2082
	.short	-2000
	.short	-1921
	.short	-1845
	.short	-1771
	.short	-1701
	.short	-1633
	.short	-1568
	.short	-1506
	.short	-1446
	.short	-1388
	.short	-1332
	.short	-1279
	.short	-1228
	.short	-1179
	.short	-1131
	.short	-1086
	.short	-1042
	.short	-1000
	.short	-960
	.short	-922
	.short	-884
	.short	-849
	.short	-815
	.short	-782
	.short	-750
	.short	-720
	.short	-691
	.short	-663
	.short	-636
	.short	-610
	.short	-586
	.short	-562
	.short	-539
	.short	-517
	.short	-497
	.short	-476
	.short	-457
	.short	-439
	.short	-421
	.short	-404
	.short	-387
	.short	-372
	.short	-357
	.short	-342
	.short	-328
	.short	-315
	.short	-302
	.short	-290
	.short	-278
	.short	-267
	.short	-256
	.short	-245
	.short	-235
	.short	-226
	.short	-217
	.short	-208
	.short	-199
	.short	-191
	.short	-184
	.short	-176
	.short	-169
	.short	-162
	.short	-155
	.short	-149
	.short	-143
	.short	-137
	.short	-132
	.short	-126
	.short	-121
	.short	-116
	.short	-111
	.short	-107
	.short	-103
	.short	-98
	.short	-94
	.short	-91
	.short	-87
	.short	-83
	.short	-80
	.short	-77
	.short	-74
	.short	-71
	.short	-68
	.short	-65
	.short	-62
	.short	-60
	.short	-57
	.short	-55
	.short	-53
	.short	-51
	.short	-48
	.short	-47
	.short	-45
	.short	-43
	.short	-41
	.short	-39
	.short	-38
	.short	-36
	.short	-35
	.short	-33
	.short	-32
	.short	-31
	.short	-29
	.short	-28
	.short	-27
	.short	-26
	.short	-25
	.short	-24
	.short	-23
	.short	-22
	.short	-21
	.short	-20
	.short	-19
	.short	-19
	.short	-18
	.short	-17
	.short	-16
	.short	-16
	.short	-15
	.short	-14
	.short	-14
	.short	-13
	.short	-13
	.short	-12
	.short	-12
	.short	-11
	.short	-11
	.short	-10
	.short	-10
	.short	-10
	.short	-9
	.short	-9
	.short	-8
	.short	-8
	.short	-8
	.short	-7
	.short	-7
	.short	-7
	.short	-7
	.short	-6
	.short	-6
	.short	-6
	.short	-6
	.short	-5
	.short	-5
	.short	-5
	.short	-5
	.short	-5
	.short	-4
	.short	-4
	.short	-4
	.short	-4
	.short	-4
	.short	-4
	.short	-3
	.short	-3
	.short	-3
	.short	-3
	.short	-3
	.short	-3
	.short	-3
	.short	-3
	.short	-2
	.short	-2
	.short	-2
	.short	-2
	.short	-2
	.short	-2
	.short	-2
	.short	-2
	.short	-2
	.short	-2
	.short	-1
	.section	.text._ZN6tflite9NumInputsEPK10TfLiteNode,"axG",%progbits,_ZN6tflite9NumInputsEPK10TfLiteNode,comdat
	.align	1
	.weak	_ZN6tflite9NumInputsEPK10TfLiteNode
	.syntax unified
	.thumb
	.thumb_func
	.type	_ZN6tflite9NumInputsEPK10TfLiteNode, %function
_ZN6tflite9NumInputsEPK10TfLiteNode:
.LFB2232:
	.file 1 "C:/TensorFlow/tflite-micro/tensorflow/lite/kernels/kernel_util.h"
	.loc 1 155 46
	@ args = 0, pretend = 0, frame = 8
	@ frame_needed = 0, uses_anonymous_args = 0
	@ link register save eliminated.
	sub	sp, sp, #8
.LCFI0:
	str	r0, [sp, #4]
	.loc 1 156 16
	ldr	r3, [sp, #4]
	ldr	r3, [r3]
	.loc 1 156 34
	cmp	r3, #0
	beq	.L2
	.loc 1 156 46 discriminator 1
	ldr	r3, [sp, #4]
	ldr	r3, [r3]
	.loc 1 156 34 discriminator 1
	ldr	r3, [r3]
	.loc 1 156 54 discriminator 1
	b	.L4
.L2:
	.loc 1 156 34 discriminator 2
	movs	r3, #0
.L4:
	.loc 1 157 1 discriminator 5
	mov	r0, r3
	add	sp, sp, #8
.LCFI1:
	@ sp needed
	bx	lr
.LFE2232:
	.size	_ZN6tflite9NumInputsEPK10TfLiteNode, .-_ZN6tflite9NumInputsEPK10TfLiteNode
	.section	.rodata._ZN11flatbuffersL21kFileIdentifierLengthE,"a"
	.align	2
	.type	_ZN11flatbuffersL21kFileIdentifierLengthE, %object
	.size	_ZN11flatbuffersL21kFileIdentifierLengthE, 4
_ZN11flatbuffersL21kFileIdentifierLengthE:
	.word	4
	.section	.rodata._ZN11flatbuffersL7nulloptE,"a"
	.align	2
	.type	_ZN11flatbuffersL7nulloptE, %object
	.size	_ZN11flatbuffersL7nulloptE, 4
_ZN11flatbuffersL7nulloptE:
	.word	_ZN11flatbuffers8internal14nullopt_holderIvE9instance_E
	.section	.rodata._ZN11flatbuffersL14dynamic_extentE,"a"
	.align	2
	.type	_ZN11flatbuffersL14dynamic_extentE, %object
	.size	_ZN11flatbuffersL14dynamic_extentE, 4
_ZN11flatbuffersL14dynamic_extentE:
	.word	-1
	.section	.rodata._ZL8__elast1,"a"
	.align	2
	.type	_ZL8__elast1, %object
	.size	_ZL8__elast1, 4
_ZL8__elast1:
	.word	104
	.section	.rodata._ZL8__elast2,"a"
	.align	2
	.type	_ZL8__elast2, %object
	.size	_ZL8__elast2, 4
_ZL8__elast2:
	.word	105
	.section	.rodata._ZN11flatbuffersL14kPathSeparatorE,"a"
	.type	_ZN11flatbuffersL14kPathSeparatorE, %object
	.size	_ZN11flatbuffersL14kPathSeparatorE, 1
_ZN11flatbuffersL14kPathSeparatorE:
	.byte	47
	.section	.text._ZN6tflite12_GLOBAL__N_14InitEP13TfLiteContextPKcj,"ax",%progbits
	.align	1
	.syntax unified
	.thumb
	.thumb_func
	.type	_ZN6tflite12_GLOBAL__N_14InitEP13TfLiteContextPKcj, %function
_ZN6tflite12_GLOBAL__N_14InitEP13TfLiteContextPKcj:
.LFB7769:
	.file 2 "C:\\TensorFlow\\tflite-micro\\tensorflow\\lite\\micro\\kernels\\svdf.cc"
	.loc 2 35 71
	@ args = 0, pretend = 0, frame = 16
	@ frame_needed = 0, uses_anonymous_args = 0
	push	{lr}
.LCFI2:
	sub	sp, sp, #20
.LCFI3:
	str	r0, [sp, #12]
	str	r1, [sp, #8]
	str	r2, [sp, #4]
	.loc 2 36 3
	ldr	r3, [sp, #12]
	ldr	r3, [r3, #56]
	cmp	r3, #0
	bne	.L6
	.loc 2 36 3 is_stmt 0 discriminator 1
	bl	abort
.L6:
	.loc 2 37 19 is_stmt 1
	ldr	r3, [sp, #12]
	ldr	r3, [r3, #56]
	.loc 2 37 43
	movs	r1, #36
	ldr	r0, [sp, #12]
	blx	r3
.LVL0:
	mov	r3, r0
	.loc 2 38 1
	mov	r0, r3
	add	sp, sp, #20
.LCFI4:
	@ sp needed
	ldr	pc, [sp], #4
.LFE7769:
	.size	_ZN6tflite12_GLOBAL__N_14InitEP13TfLiteContextPKcj, .-_ZN6tflite12_GLOBAL__N_14InitEP13TfLiteContextPKcj
	.section .rodata
	.align	2
.LC0:
	.ascii	"Type %s not currently supported.\000"
	.section	.text._ZN6tflite12_GLOBAL__N_14EvalEP13TfLiteContextP10TfLiteNode,"ax",%progbits
	.align	1
	.syntax unified
	.thumb
	.thumb_func
	.type	_ZN6tflite12_GLOBAL__N_14EvalEP13TfLiteContextP10TfLiteNode, %function
_ZN6tflite12_GLOBAL__N_14EvalEP13TfLiteContextP10TfLiteNode:
.LFB7770:
	.loc 2 40 61
	@ args = 0, pretend = 0, frame = 40
	@ frame_needed = 0, uses_anonymous_args = 0
	push	{lr}
.LCFI5:
	sub	sp, sp, #68
.LCFI6:
	str	r0, [sp, #28]
	str	r1, [sp, #24]
	.loc 2 41 9
	ldr	r3, [sp, #24]
	ldr	r3, [r3, #20]
	str	r3, [sp, #60]
	.loc 2 42 3
	ldr	r3, [sp, #24]
	ldr	r3, [r3, #16]
	cmp	r3, #0
	bne	.L9
	.loc 2 42 3 is_stmt 0 discriminator 1
	bl	abort
.L9:
	.loc 2 43 21 is_stmt 1
	ldr	r3, [sp, #24]
	ldr	r3, [r3, #16]
	str	r3, [sp, #56]
	.loc 2 46 34
	ldr	r3, .L21
	ldr	r3, [r3]
	mov	r2, r3
	ldr	r1, [sp, #24]
	ldr	r0, [sp, #28]
	bl	_ZN6tflite5micro12GetEvalInputEPK13TfLiteContextPK10TfLiteNodei
	str	r0, [sp, #52]
	.loc 2 48 34
	ldr	r3, .L21+4
	ldr	r3, [r3]
	mov	r2, r3
	ldr	r1, [sp, #24]
	ldr	r0, [sp, #28]
	bl	_ZN6tflite5micro12GetEvalInputEPK13TfLiteContextPK10TfLiteNodei
	str	r0, [sp, #48]
	.loc 2 50 34
	ldr	r3, .L21+8
	ldr	r3, [r3]
	mov	r2, r3
	ldr	r1, [sp, #24]
	ldr	r0, [sp, #28]
	bl	_ZN6tflite5micro12GetEvalInputEPK13TfLiteContextPK10TfLiteNodei
	str	r0, [sp, #44]
	.loc 2 52 17
	ldr	r0, [sp, #24]
	bl	_ZN6tflite9NumInputsEPK10TfLiteNode
	mov	r3, r0
	.loc 2 53 11
	cmp	r3, #5
	bne	.L10
	.loc 2 53 40 discriminator 1
	ldr	r3, .L21+12
	ldr	r3, [r3]
	mov	r2, r3
	ldr	r1, [sp, #24]
	ldr	r0, [sp, #28]
	bl	_ZN6tflite5micro12GetEvalInputEPK13TfLiteContextPK10TfLiteNodei
	mov	r3, r0
	b	.L11
.L10:
	.loc 2 53 11 discriminator 2
	movs	r3, #0
.L11:
	.loc 2 54 13
	str	r3, [sp, #40]
	.loc 2 55 74
	ldr	r3, .L21+16
	ldr	r3, [r3]
	mov	r2, r3
	ldr	r1, [sp, #24]
	ldr	r0, [sp, #28]
	bl	_ZN6tflite5micro19GetMutableEvalInputEPK13TfLiteContextPK10TfLiteNodei
	str	r0, [sp, #36]
	.loc 2 58 35
	ldr	r3, .L21+20
	ldr	r3, [r3]
	mov	r2, r3
	ldr	r1, [sp, #24]
	ldr	r0, [sp, #28]
	bl	_ZN6tflite5micro13GetEvalOutputEPK13TfLiteContextPK10TfLiteNodei
	str	r0, [sp, #32]
	.loc 2 60 28
	ldr	r3, [sp, #48]
	ldrb	r3, [r3, #8]	@ zero_extendqisi2
	.loc 2 60 3
	cmp	r3, #1
	beq	.L12
	cmp	r3, #9
	beq	.L13
	b	.L19
.L12:
	.loc 2 64 16
	ldr	r3, [sp, #56]
	ldr	r3, [r3, #16]
	.loc 2 62 29
	ldr	r2, [sp, #32]
	str	r2, [sp, #20]
	ldr	r2, [sp, #36]
	str	r2, [sp, #16]
	str	r3, [sp, #12]
	ldr	r3, [sp, #60]
	str	r3, [sp, #8]
	ldr	r3, [sp, #40]
	str	r3, [sp, #4]
	ldr	r3, [sp, #44]
	str	r3, [sp]
	ldr	r3, [sp, #48]
	ldr	r2, [sp, #52]
	ldr	r1, [sp, #24]
	ldr	r0, [sp, #28]
	bl	_ZN6tflite22EvalFloatSvdfReferenceEP13TfLiteContextP10TfLiteNodePK16TfLiteEvalTensorS6_S6_S6_PK16TfLiteSVDFParamsiPS4_SA_
	.loc 2 65 14
	movs	r3, #0
	b	.L15
.L13:
	.loc 2 70 29
	ldr	r3, [sp, #44]
	ldrb	r3, [r3, #8]	@ zero_extendqisi2
	.loc 2 70 7
	cmp	r3, #7
	beq	.L16
	cmp	r3, #9
	beq	.L17
	b	.L20
.L16:
	.loc 2 72 33
	ldr	r3, [sp, #56]
	str	r3, [sp, #20]
	ldr	r3, [sp, #32]
	str	r3, [sp, #16]
	ldr	r3, [sp, #36]
	str	r3, [sp, #12]
	ldr	r3, [sp, #60]
	str	r3, [sp, #8]
	ldr	r3, [sp, #40]
	str	r3, [sp, #4]
	ldr	r3, [sp, #44]
	str	r3, [sp]
	ldr	r3, [sp, #48]
	ldr	r2, [sp, #52]
	ldr	r1, [sp, #24]
	ldr	r0, [sp, #28]
	bl	_ZN6tflite22EvalInt16SvdfReferenceEP13TfLiteContextP10TfLiteNodePK16TfLiteEvalTensorS6_S6_S6_PK16TfLiteSVDFParamsPS4_SA_RKNS_10OpDataSvdfE
	.loc 2 75 18
	movs	r3, #0
	b	.L15
.L17:
	.loc 2 79 32
	ldr	r3, [sp, #56]
	str	r3, [sp, #20]
	ldr	r3, [sp, #32]
	str	r3, [sp, #16]
	ldr	r3, [sp, #36]
	str	r3, [sp, #12]
	ldr	r3, [sp, #60]
	str	r3, [sp, #8]
	ldr	r3, [sp, #40]
	str	r3, [sp, #4]
	ldr	r3, [sp, #44]
	str	r3, [sp]
	ldr	r3, [sp, #48]
	ldr	r2, [sp, #52]
	ldr	r1, [sp, #24]
	ldr	r0, [sp, #28]
	bl	_ZN6tflite21EvalInt8SvdfReferenceEP13TfLiteContextP10TfLiteNodePK16TfLiteEvalTensorS6_S6_S6_PK16TfLiteSVDFParamsPS4_SA_RKNS_10OpDataSvdfE
	.loc 2 82 18
	movs	r3, #0
	b	.L15
.L20:
	.loc 2 87 55
	ldr	r3, [sp, #44]
	ldrb	r3, [r3, #8]	@ zero_extendqisi2
	.loc 2 86 22
	mov	r0, r3
	bl	TfLiteTypeGetName
	mov	r3, r0
	mov	r1, r3
	ldr	r0, .L21+24
	bl	_Z11MicroPrintfPKcz
	.loc 2 88 18
	movs	r3, #1
	b	.L15
.L19:
	.loc 2 94 54
	ldr	r3, [sp, #48]
	ldrb	r3, [r3, #8]	@ zero_extendqisi2
	.loc 2 93 18
	mov	r0, r3
	bl	TfLiteTypeGetName
	mov	r3, r0
	mov	r1, r3
	ldr	r0, .L21+24
	bl	_Z11MicroPrintfPKcz
	.loc 2 95 14
	movs	r3, #1
.L15:
	.loc 2 98 1
	mov	r0, r3
	add	sp, sp, #68
.LCFI7:
	@ sp needed
	ldr	pc, [sp], #4
.L22:
	.align	2
.L21:
	.word	_ZN6tflite16kSvdfInputTensorE
	.word	_ZN6tflite25kSvdfWeightsFeatureTensorE
	.word	_ZN6tflite22kSvdfWeightsTimeTensorE
	.word	_ZN6tflite15kSvdfBiasTensorE
	.word	_ZN6tflite31kSvdfInputActivationStateTensorE
	.word	_ZN6tflite17kSvdfOutputTensorE
	.word	.LC0
.LFE7770:
	.size	_ZN6tflite12_GLOBAL__N_14EvalEP13TfLiteContextP10TfLiteNode, .-_ZN6tflite12_GLOBAL__N_14EvalEP13TfLiteContextP10TfLiteNode
	.section	.text._ZN6tflite13Register_SVDFEv,"ax",%progbits
	.align	1
	.global	_ZN6tflite13Register_SVDFEv
	.syntax unified
	.thumb
	.thumb_func
	.type	_ZN6tflite13Register_SVDFEv, %function
_ZN6tflite13Register_SVDFEv:
.LFB7771:
	.loc 2 102 36
	@ args = 0, pretend = 0, frame = 8
	@ frame_needed = 0, uses_anonymous_args = 0
	push	{lr}
.LCFI8:
	sub	sp, sp, #20
.LCFI9:
	str	r0, [sp, #12]
	.loc 2 103 35
	ldr	r0, [sp, #12]
	movs	r3, #0
	str	r3, [sp]
	ldr	r3, .L25
	ldr	r2, .L25+4
	ldr	r1, .L25+8
	bl	_ZN6tflite5micro10RegisterOpEPFPvP13TfLiteContextPKcjEPF12TfLiteStatusS3_P10TfLiteNodeESC_PFvS3_S1_E
	.loc 2 103 59
	nop
	.loc 2 104 1
	ldr	r0, [sp, #12]
	add	sp, sp, #20
.LCFI10:
	@ sp needed
	ldr	pc, [sp], #4
.L26:
	.align	2
.L25:
	.word	_ZN6tflite12_GLOBAL__N_14EvalEP13TfLiteContextP10TfLiteNode
	.word	_ZN6tflite11PrepareSvdfEP13TfLiteContextP10TfLiteNode
	.word	_ZN6tflite12_GLOBAL__N_14InitEP13TfLiteContextPKcj
.LFE7771:
	.size	_ZN6tflite13Register_SVDFEv, .-_ZN6tflite13Register_SVDFEv
	.weak	_ZN11flatbuffers8internal14nullopt_holderIvE9instance_E
	.section	.rodata._ZN11flatbuffers8internal14nullopt_holderIvE9instance_E,"aG",%progbits,_ZN11flatbuffers8internal14nullopt_holderIvE9instance_E,comdat
	.align	2
	.type	_ZN11flatbuffers8internal14nullopt_holderIvE9instance_E, %object
	.size	_ZN11flatbuffers8internal14nullopt_holderIvE9instance_E, 1
_ZN11flatbuffers8internal14nullopt_holderIvE9instance_E:
	.space	1
	.section	.debug_frame,"",%progbits
.Lframe0:
	.4byte	.LECIE0-.LSCIE0
.LSCIE0:
	.4byte	0xffffffff
	.byte	0x3
	.ascii	"\000"
	.uleb128 0x1
	.sleb128 -4
	.uleb128 0xe
	.byte	0xc
	.uleb128 0xd
	.uleb128 0
	.align	2
.LECIE0:
.LSFDE0:
	.4byte	.LEFDE0-.LASFDE0
.LASFDE0:
	.4byte	.Lframe0
	.4byte	.LFB2232
	.4byte	.LFE2232-.LFB2232
	.byte	0x4
	.4byte	.LCFI0-.LFB2232
	.byte	0xe
	.uleb128 0x8
	.byte	0x4
	.4byte	.LCFI1-.LCFI0
	.byte	0xe
	.uleb128 0
	.align	2
.LEFDE0:
.LSFDE2:
	.4byte	.LEFDE2-.LASFDE2
.LASFDE2:
	.4byte	.Lframe0
	.4byte	.LFB7769
	.4byte	.LFE7769-.LFB7769
	.byte	0x4
	.4byte	.LCFI2-.LFB7769
	.byte	0xe
	.uleb128 0x4
	.byte	0x8e
	.uleb128 0x1
	.byte	0x4
	.4byte	.LCFI3-.LCFI2
	.byte	0xe
	.uleb128 0x18
	.byte	0x4
	.4byte	.LCFI4-.LCFI3
	.byte	0xe
	.uleb128 0x4
	.align	2
.LEFDE2:
.LSFDE4:
	.4byte	.LEFDE4-.LASFDE4
.LASFDE4:
	.4byte	.Lframe0
	.4byte	.LFB7770
	.4byte	.LFE7770-.LFB7770
	.byte	0x4
	.4byte	.LCFI5-.LFB7770
	.byte	0xe
	.uleb128 0x4
	.byte	0x8e
	.uleb128 0x1
	.byte	0x4
	.4byte	.LCFI6-.LCFI5
	.byte	0xe
	.uleb128 0x48
	.byte	0x4
	.4byte	.LCFI7-.LCFI6
	.byte	0xe
	.uleb128 0x4
	.align	2
.LEFDE4:
.LSFDE6:
	.4byte	.LEFDE6-.LASFDE6
.LASFDE6:
	.4byte	.Lframe0
	.4byte	.LFB7771
	.4byte	.LFE7771-.LFB7771
	.byte	0x4
	.4byte	.LCFI8-.LFB7771
	.byte	0xe
	.uleb128 0x4
	.byte	0x8e
	.uleb128 0x1
	.byte	0x4
	.4byte	.LCFI9-.LCFI8
	.byte	0xe
	.uleb128 0x18
	.byte	0x4
	.4byte	.LCFI10-.LCFI9
	.byte	0xe
	.uleb128 0x4
	.align	2
.LEFDE6:
	.text
.Letext0:
	.file 3 "C:/Program Files/SEGGER/SEGGER Embedded Studio for ARM 7.10a/source/libcxx/include/cstddef"
	.file 4 "C:/Program Files/SEGGER/SEGGER Embedded Studio for ARM 7.10a/source/libcxx/include/type_traits"
	.file 5 "C:/Program Files/SEGGER/SEGGER Embedded Studio for ARM 7.10a/source/libcxx/include/limits"
	.file 6 "C:/Program Files/SEGGER/SEGGER Embedded Studio for ARM 7.10a/source/libcxx/include/cstring"
	.file 7 "C:/Program Files/SEGGER/SEGGER Embedded Studio for ARM 7.10a/source/libcxx/include/cstdint"
	.file 8 "C:/Program Files/SEGGER/SEGGER Embedded Studio for ARM 7.10a/source/libcxx/include/utility"
	.file 9 "C:/Program Files/SEGGER/SEGGER Embedded Studio for ARM 7.10a/source/libcxx/include/cstdlib"
	.file 10 "C:/Program Files/SEGGER/SEGGER Embedded Studio for ARM 7.10a/source/libcxx/include/__functional_base"
	.file 11 "C:/Program Files/SEGGER/SEGGER Embedded Studio for ARM 7.10a/source/libcxx/include/tuple"
	.file 12 "C:/Program Files/SEGGER/SEGGER Embedded Studio for ARM 7.10a/source/libcxx/include/memory"
	.file 13 "C:/Program Files/SEGGER/SEGGER Embedded Studio for ARM 7.10a/source/libcxx/include/functional"
	.file 14 "C:/Program Files/SEGGER/SEGGER Embedded Studio for ARM 7.10a/source/libcxx/include/cmath"
	.file 15 "C:/Program Files/SEGGER/SEGGER Embedded Studio for ARM 7.10a/source/libcxx/include/cstdio"
	.file 16 "C:/Program Files/SEGGER/SEGGER Embedded Studio for ARM 7.10a/source/libcxx/include/cwctype"
	.file 17 "C:/Program Files/SEGGER/SEGGER Embedded Studio for ARM 7.10a/source/libcxx/include/cwchar"
	.file 18 "C:/Program Files/SEGGER/SEGGER Embedded Studio for ARM 7.10a/source/libcxx/include/ctime"
	.file 19 "C:/Program Files/SEGGER/SEGGER Embedded Studio for ARM 7.10a/source/libcxx/include/chrono"
	.file 20 "C:/Program Files/SEGGER/SEGGER Embedded Studio for ARM 7.10a/source/libcxx/include/ratio"
	.file 21 "C:/Program Files/SEGGER/SEGGER Embedded Studio for ARM 7.10a/source/libcxx/include/cstdarg"
	.file 22 "C:/Program Files/SEGGER/SEGGER Embedded Studio for ARM 7.10a/source/libcxx/include/__tuple"
	.file 23 "C:/Program Files/SEGGER/SEGGER Embedded Studio for ARM 7.10a/source/libcxx/include/__config"
	.file 24 "C:/Program Files/SEGGER/SEGGER Embedded Studio for ARM 7.10a/source/libcxx/include/__nullptr"
	.file 25 "C:/Program Files/SEGGER/SEGGER Embedded Studio for ARM 7.10a/include/stdint.h"
	.file 26 "C:/Program Files/SEGGER/SEGGER Embedded Studio for ARM 7.10a/include/stdarg.h"
	.file 27 "C:/Program Files/SEGGER/SEGGER Embedded Studio for ARM 7.10a/include/stddef.h"
	.file 28 "C:/Program Files/SEGGER/SEGGER Embedded Studio for ARM 7.10a/source/libcxx/include/stddef.h"
	.file 29 "C:/TensorFlow/tflite-micro/tensorflow/lite/core/c/c_api_types.h"
	.file 30 "C:/TensorFlow/tflite-micro/tensorflow/lite/core/c/common.h"
	.file 31 "C:/TensorFlow/tflite-micro/tensorflow/lite/core/c/builtin_op_data.h"
	.file 32 "C:/TensorFlow/tflite-micro/tensorflow/lite/micro/kernels/svdf.h"
	.file 33 "C:/TensorFlow/tflite-micro/tensorflow/lite/kernels/internal/types.h"
	.file 34 "C:/TensorFlow/tflite-micro/tensorflow/lite/kernels/internal/common.h"
	.file 35 "C:/TensorFlow/tflite-micro/tensorflow/lite/micro/micro_allocator.h"
	.file 36 "C:/TensorFlow/tflite-micro/tensorflow/lite/micro/kernels/kernel_util.h"
	.file 37 "C:/Program Files/SEGGER/SEGGER Embedded Studio for ARM 7.10a/include/stdlib.h"
	.file 38 "C:/Program Files/SEGGER/SEGGER Embedded Studio for ARM 7.10a/include/math.h"
	.file 39 "C:/Program Files/SEGGER/SEGGER Embedded Studio for ARM 7.10a/include/string.h"
	.file 40 "C:/Program Files/SEGGER/SEGGER Embedded Studio for ARM 7.10a/include/wchar.h"
	.file 41 "C:/Program Files/SEGGER/SEGGER Embedded Studio for ARM 7.10a/source/libcxx/include/math.h"
	.file 42 "C:/TensorFlow/tflite-micro/tensorflow/lite/micro/tools/make/downloads/gemmlowp/fixedpoint/fixedpoint.h"
	.file 43 "C:/Program Files/SEGGER/SEGGER Embedded Studio for ARM 7.10a/include/stdio.h"
	.file 44 "C:/Program Files/SEGGER/SEGGER Embedded Studio for ARM 7.10a/include/wctype.h"
	.file 45 "C:/Program Files/SEGGER/SEGGER Embedded Studio for ARM 7.10a/include/time.h"
	.file 46 "C:/TensorFlow/tflite-micro/tensorflow/lite/micro/tools/make/downloads/flatbuffers/include/flatbuffers/base.h"
	.file 47 "C:/TensorFlow/tflite-micro/tensorflow/lite/micro/tools/make/downloads/flatbuffers/include/flatbuffers/stl_emulation.h"
	.file 48 "<built-in>"
	.file 49 "C:/TensorFlow/tflite-micro/tensorflow/lite/micro/tools/make/downloads/flatbuffers/include/flatbuffers/util.h"
	.file 50 "C:/Program Files/SEGGER/SEGGER Embedded Studio for ARM 7.10a/source/libcxx/include/errno.h"
	.file 51 "C:/TensorFlow/tflite-micro/tensorflow/lite/micro/tools/make/downloads/flatbuffers/include/flatbuffers/flexbuffers.h"
	.file 52 "C:/TensorFlow/tflite-micro/tensorflow/lite/micro/micro_log.h"